; ModuleID = '5t2p7wwj928fniz'
source_filename = "5t2p7wwj928fniz"
target datalayout = "e-m:e-p270:32:32-p271:32:32-p272:64:64-i64:64-f80:128-n8:16:32:64-S128"
target triple = "x86_64-unknown-linux-gnu"

%"alloc::vec::into_iter::IntoIter<std::ffi::os_str::OsString>" = type { ptr, i64, ptr, ptr, %"core::marker::PhantomData<std::ffi::os_str::OsString>", %"core::mem::manually_drop::ManuallyDrop<alloc::alloc::Global>" }
%"core::marker::PhantomData<std::ffi::os_str::OsString>" = type {}
%"core::mem::manually_drop::ManuallyDrop<alloc::alloc::Global>" = type { %"alloc::alloc::Global" }
%"alloc::alloc::Global" = type {}
%"core::ptr::metadata::PtrRepr<[u8]>" = type { [2 x i64] }
%"core::ops::range::RangeFull" = type {}
%"alloc::vec::Vec<u8>" = type { { ptr, i64 }, i64 }
%"alloc::vec::Vec<alloc::string::String>" = type { { ptr, i64 }, i64 }
%"std::env::Args" = type { %"std::env::ArgsOs" }
%"std::env::ArgsOs" = type { %"std::sys::unix::args::Args" }
%"std::sys::unix::args::Args" = type { %"alloc::vec::into_iter::IntoIter<std::ffi::os_str::OsString>" }
%"alloc::string::String" = type { %"alloc::vec::Vec<u8>" }
%"core::option::Option<alloc::string::String>" = type { ptr, [2 x i64] }
%"core::result::Result<alloc::string::String, std::io::error::Error>" = type { ptr, [2 x i64] }
%"std::io::error::ErrorData<alloc::boxed::Box<std::io::error::Custom>>" = type { i8, [15 x i8] }
%"{closure@<std::io::error::repr_bitpacked::Repr as core::ops::drop::Drop>::drop::{closure#0}}" = type {}
%"core::ptr::metadata::PtrComponents<()>" = type { ptr, {} }
%"core::ptr::metadata::PtrRepr<()>" = type { [1 x i64] }
%"core::fmt::rt::UnsafeArg" = type { {} }
%"std::io::error::ErrorData<alloc::boxed::Box<std::io::error::Custom>>::Os" = type { [1 x i32], i32 }
%"std::io::error::ErrorData<alloc::boxed::Box<std::io::error::Custom>>::SimpleMessage" = type { [1 x i64], ptr }
%"std::io::error::ErrorData<alloc::boxed::Box<std::io::error::Custom>>::Simple" = type { [1 x i8], i8 }
%"std::io::error::ErrorData<alloc::boxed::Box<std::io::error::Custom>>::Custom" = type { [1 x i64], ptr }
%"core::fmt::Formatter<'_>" = type { { i64, i64 }, { i64, i64 }, { ptr, ptr }, i32, i32, i8, [7 x i8] }
%"core::fmt::Arguments<'_>" = type { { ptr, i64 }, { ptr, i64 }, { ptr, i64 } }
%"std::ffi::os_str::OsString" = type { %"std::sys::unix::os_str::Buf" }
%"std::sys::unix::os_str::Buf" = type { %"alloc::vec::Vec<u8>" }
%"core::result::Result<alloc::string::String, std::io::error::Error>::Err" = type { [1 x i64], ptr }
%"core::option::Option<core::convert::Infallible>::None" = type {}
%"core::str::pattern::StrSearcher<'_, '_>" = type { %"core::str::pattern::StrSearcherImpl", { ptr, i64 }, { ptr, i64 } }
%"core::str::pattern::StrSearcherImpl" = type { i64, [8 x i64] }
%"core::option::Option<(usize, usize)>" = type { i64, [2 x i64] }
%"{closure@core::str::<impl str>::find<'_, &alloc::string::String>::{closure#0}}" = type {}
%"core::option::Option<(usize, usize)>::Some" = type { [1 x i64], { i64, i64 } }
%"core::str::pattern::TwoWaySearcher" = type { i64, i64, i64, i64, i64, i64, i64, i64 }
%"core::str::pattern::SearchStep" = type { i64, [2 x i64] }
%"core::option::Option<core::fmt::Arguments<'_>>" = type { ptr, [5 x i64] }
%"{closure@alloc::raw_vec::handle_reserve::{closure#0}}" = type {}
%"core::result::Result<core::alloc::layout::Layout, alloc::collections::TryReserveErrorKind>" = type { i64, [2 x i64] }
%"core::alloc::layout::LayoutError" = type {}
%"{closure@alloc::raw_vec::finish_grow<alloc::alloc::Global>::{closure#0}}" = type {}
%"core::result::Result<core::alloc::layout::Layout, alloc::collections::TryReserveErrorKind>::Ok" = type { [1 x i64], { i64, i64 } }
%"core::result::Result<core::alloc::layout::Layout, alloc::collections::TryReserveErrorKind>::Err" = type { [1 x i64], { i64, i64 } }
%"core::result::Result<core::ptr::non_null::NonNull<[u8]>, alloc::collections::TryReserveError>" = type { i64, [2 x i64] }
%"core::alloc::AllocError" = type {}
%"core::result::Result<core::ptr::non_null::NonNull<[u8]>, alloc::collections::TryReserveError>::Ok" = type { [1 x i64], { ptr, i64 } }
%"core::result::Result<core::ptr::non_null::NonNull<[u8]>, alloc::collections::TryReserveError>::Err" = type { [1 x i64], { i64, i64 } }
%"core::ptr::metadata::PtrRepr<[std::ffi::os_str::OsString]>" = type { [2 x i64] }
%"core::result::Result<core::convert::Infallible, core::alloc::AllocError>::Err" = type { %"core::alloc::AllocError" }
%"core::ops::control_flow::ControlFlow<core::result::Result<core::convert::Infallible, alloc::collections::TryReserveErrorKind>, core::alloc::layout::Layout>" = type { i64, [2 x i64] }
%"core::ops::control_flow::ControlFlow<core::result::Result<core::convert::Infallible, alloc::collections::TryReserveErrorKind>, core::alloc::layout::Layout>::Continue" = type { [1 x i64], { i64, i64 } }
%"core::ops::control_flow::ControlFlow<core::result::Result<core::convert::Infallible, alloc::collections::TryReserveErrorKind>, core::alloc::layout::Layout>::Break" = type { [1 x i64], { i64, i64 } }
%"core::option::Option<(core::ptr::non_null::NonNull<u8>, core::alloc::layout::Layout)>" = type { [1 x i64], i64, [1 x i64] }
%"core::ops::control_flow::ControlFlow<core::result::Result<core::convert::Infallible, alloc::collections::TryReserveError>, core::ptr::non_null::NonNull<[u8]>>" = type { i64, [2 x i64] }
%"core::result::Result<usize, alloc::collections::TryReserveErrorKind>" = type { i64, [1 x i64] }
%"core::ops::control_flow::ControlFlow<core::result::Result<core::convert::Infallible, alloc::collections::TryReserveErrorKind>, usize>" = type { i64, [1 x i64] }
%"core::result::Result<usize, alloc::collections::TryReserveErrorKind>::Ok" = type { [1 x i64], i64 }
%"core::ops::control_flow::ControlFlow<core::result::Result<core::convert::Infallible, alloc::collections::TryReserveErrorKind>, usize>::Continue" = type { [1 x i64], i64 }
%"core::ops::control_flow::ControlFlow<core::result::Result<core::convert::Infallible, alloc::collections::TryReserveError>, core::ptr::non_null::NonNull<[u8]>>::Continue" = type { [1 x i64], { ptr, i64 } }
%"core::ops::control_flow::ControlFlow<core::result::Result<core::convert::Infallible, alloc::collections::TryReserveError>, core::ptr::non_null::NonNull<[u8]>>::Break" = type { [1 x i64], { i64, i64 } }
%"core::ptr::metadata::PtrRepr<[alloc::string::String]>" = type { [2 x i64] }
%"core::str::pattern::StrSearcherImpl::TwoWay" = type { [1 x i64], %"core::str::pattern::TwoWaySearcher" }
%"core::str::pattern::SearchStep::Match" = type { [1 x i64], i64, i64 }
%"{closure@<core::str::iter::Chars<'_> as core::iter::traits::iterator::Iterator>::next::{closure#0}}" = type {}
%"core::str::pattern::StrSearcherImpl::Empty" = type { [1 x i64], %"core::str::pattern::EmptyNeedle" }
%"core::str::pattern::EmptyNeedle" = type { i64, i64, i8, i8, i8, [5 x i8] }
%"core::str::pattern::SearchStep::Reject" = type { [1 x i64], i64, i64 }

@alloc_ec595fc0e82ef92fc59bd74f68296eae = private unnamed_addr constant <{ [73 x i8] }> <{ [73 x i8] c"assertion failed: 0 < pointee_size && pointee_size <= isize::MAX as usize" }>, align 1
@alloc_e8dfc95c36caff7288da44b683f50ca2 = private unnamed_addr constant <{ [81 x i8] }> <{ [81 x i8] c"/rustc/82e1608dfa6e0b5569232559e3d385fea5a93112/library/core/src/ptr/const_ptr.rs" }>, align 1
@alloc_c90645318af9ade3fb5802f5eb288e75 = private unnamed_addr constant <{ ptr, [16 x i8] }> <{ ptr @alloc_e8dfc95c36caff7288da44b683f50ca2, [16 x i8] c"Q\00\00\00\00\00\00\003\03\00\00\09\00\00\00" }>, align 8
@alloc_a500d906b91607583596fa15e63c2ada = private unnamed_addr constant <{ [40 x i8] }> <{ [40 x i8] c"internal error: entered unreachable code" }>, align 1
@alloc_d0deb43d3d5eebff3b2b80b48c9ad68c = private unnamed_addr constant <{ [90 x i8] }> <{ [90 x i8] c"/rustc/82e1608dfa6e0b5569232559e3d385fea5a93112/library/std/src/io/error/repr_bitpacked.rs" }>, align 1
@alloc_ebdcf451b05d79292c8bb27e8fd089cf = private unnamed_addr constant <{ ptr, [16 x i8] }> <{ ptr @alloc_d0deb43d3d5eebff3b2b80b48c9ad68c, [16 x i8] c"Z\00\00\00\00\00\00\00\18\01\00\00\0D\00\00\00" }>, align 8
@vtable.0 = private constant <{ ptr, [16 x i8], ptr, ptr, ptr }> <{ ptr @"_ZN4core3ptr85drop_in_place$LT$std..rt..lang_start$LT$$LP$$RP$$GT$..$u7b$$u7b$closure$u7d$$u7d$$GT$17h11a48a71e68d9c82E", [16 x i8] c"\08\00\00\00\00\00\00\00\08\00\00\00\00\00\00\00", ptr @"_ZN4core3ops8function6FnOnce40call_once$u7b$$u7b$vtable.shim$u7d$$u7d$17h4b0a9894e24ec55cE", ptr @"_ZN3std2rt10lang_start28_$u7b$$u7b$closure$u7d$$u7d$17hd2f9c3e545533eacE", ptr @"_ZN3std2rt10lang_start28_$u7b$$u7b$closure$u7d$$u7d$17hd2f9c3e545533eacE" }>, align 8, !dbg !0
@alloc_91c7fa63c3cfeaa3c795652d5cf060e4 = private unnamed_addr constant <{ [12 x i8] }> <{ [12 x i8] c"invalid args" }>, align 1
@alloc_560206a49c61adca6f3f0639a12632eb = private unnamed_addr constant <{ ptr, [8 x i8] }> <{ ptr @alloc_91c7fa63c3cfeaa3c795652d5cf060e4, [8 x i8] c"\0C\00\00\00\00\00\00\00" }>, align 8
@alloc_513570631223a12912d85da2bec3b15a = private unnamed_addr constant <{}> zeroinitializer, align 8
@alloc_b5970474149acb40bd55b9b54ff0a4d7 = private unnamed_addr constant <{ [75 x i8] }> <{ [75 x i8] c"/rustc/82e1608dfa6e0b5569232559e3d385fea5a93112/library/core/src/fmt/mod.rs" }>, align 1
@alloc_b3a1ae5691ce283efab06be3afc2c025 = private unnamed_addr constant <{ ptr, [16 x i8] }> <{ ptr @alloc_b5970474149acb40bd55b9b54ff0a4d7, [16 x i8] c"K\00\00\00\00\00\00\00M\01\00\00\0D\00\00\00" }>, align 8
@alloc_976e565e678feda535b12b38ec327561 = private unnamed_addr constant <{ ptr, [16 x i8] }> <{ ptr @alloc_b5970474149acb40bd55b9b54ff0a4d7, [16 x i8] c"K\00\00\00\00\00\00\00C\01\00\00\0D\00\00\00" }>, align 8
@alloc_45ebd6709556441a1f7c99a862f2de99 = private unnamed_addr constant <{ [79 x i8] }> <{ [79 x i8] c"/rustc/82e1608dfa6e0b5569232559e3d385fea5a93112/library/core/src/str/pattern.rs" }>, align 1
@alloc_9d2c926d571d846b7ed8f3f57c5c84e3 = private unnamed_addr constant <{ ptr, [16 x i8] }> <{ ptr @alloc_45ebd6709556441a1f7c99a862f2de99, [16 x i8] c"O\00\00\00\00\00\00\00\B7\05\00\00\14\00\00\00" }>, align 8
@alloc_02f63835626abfb030483ffdd44ec4e5 = private unnamed_addr constant <{ ptr, [16 x i8] }> <{ ptr @alloc_45ebd6709556441a1f7c99a862f2de99, [16 x i8] c"O\00\00\00\00\00\00\00\B7\05\00\00!\00\00\00" }>, align 8
@alloc_49b184c40f2b7a22bd952ca838fb441a = private unnamed_addr constant <{ ptr, [16 x i8] }> <{ ptr @alloc_45ebd6709556441a1f7c99a862f2de99, [16 x i8] c"O\00\00\00\00\00\00\00\AB\05\00\00\14\00\00\00" }>, align 8
@alloc_a79a8fc2e9d2f06cdbe27021ef2e3a12 = private unnamed_addr constant <{ ptr, [16 x i8] }> <{ ptr @alloc_45ebd6709556441a1f7c99a862f2de99, [16 x i8] c"O\00\00\00\00\00\00\00\AB\05\00\00!\00\00\00" }>, align 8
@alloc_89af86eb8db74f92d9a678b210abd956 = private unnamed_addr constant <{ [90 x i8] }> <{ [90 x i8] c"/rustc/82e1608dfa6e0b5569232559e3d385fea5a93112/library/core/src/iter/traits/exact_size.rs" }>, align 1
@alloc_81b1936038037e3b919306568ced1a45 = private unnamed_addr constant <{ ptr, [16 x i8] }> <{ ptr @alloc_89af86eb8db74f92d9a678b210abd956, [16 x i8] c"Z\00\00\00\00\00\00\00z\00\00\00\09\00\00\00" }>, align 8
@alloc_d988653bf5bec18a49312bc37b98a2c4 = private unnamed_addr constant <{ [80 x i8] }> <{ [80 x i8] c"/rustc/82e1608dfa6e0b5569232559e3d385fea5a93112/library/core/src/alloc/layout.rs" }>, align 1
@alloc_cd349b0f800e182091472053d83a063d = private unnamed_addr constant <{ ptr, [16 x i8] }> <{ ptr @alloc_d988653bf5bec18a49312bc37b98a2c4, [16 x i8] c"P\00\00\00\00\00\00\00\C1\01\00\00)\00\00\00" }>, align 8
@str.1 = internal constant [25 x i8] c"attempt to divide by zero"
@alloc_00ae4b301f7fab8ac9617c03fcbd7274 = private unnamed_addr constant <{ [43 x i8] }> <{ [43 x i8] c"called `Result::unwrap()` on an `Err` value" }>, align 1
@vtable.2 = private constant <{ ptr, [16 x i8], ptr }> <{ ptr @"_ZN4core3ptr42drop_in_place$LT$std..io..error..Error$GT$17h90335012d3925325E", [16 x i8] c"\08\00\00\00\00\00\00\00\08\00\00\00\00\00\00\00", ptr @"_ZN58_$LT$std..io..error..Error$u20$as$u20$core..fmt..Debug$GT$3fmt17hcda221c82c761944E" }>, align 8, !dbg !24
@vtable.3 = private constant <{ ptr, [16 x i8], ptr }> <{ ptr @"_ZN4core3ptr46drop_in_place$LT$$RF$std..io..error..Error$GT$17hb8a51ab3840938f3E", [16 x i8] c"\08\00\00\00\00\00\00\00\08\00\00\00\00\00\00\00", ptr @"_ZN42_$LT$$RF$T$u20$as$u20$core..fmt..Debug$GT$3fmt17h4d228b8d567b74d0E" }>, align 8, !dbg !147
@vtable.4 = private constant <{ ptr, [16 x i8], ptr }> <{ ptr @"_ZN4core3ptr58drop_in_place$LT$$RF$core..option..Option$LT$usize$GT$$GT$17h3350c6e034aa1af6E", [16 x i8] c"\08\00\00\00\00\00\00\00\08\00\00\00\00\00\00\00", ptr @"_ZN42_$LT$$RF$T$u20$as$u20$core..fmt..Debug$GT$3fmt17h0e2fe47df897c481E" }>, align 8, !dbg !156
@__rust_no_alloc_shim_is_unstable = external global i8
@alloc_b7707683f2fa5e4ee142cf331027e1b4 = private unnamed_addr constant <{ [77 x i8] }> <{ [77 x i8] c"/rustc/82e1608dfa6e0b5569232559e3d385fea5a93112/library/core/src/ops/arith.rs" }>, align 1
@alloc_208c831b381dc167de4bdcdbdd0eb525 = private unnamed_addr constant <{ ptr, [16 x i8] }> <{ ptr @alloc_b7707683f2fa5e4ee142cf331027e1b4, [16 x i8] c"M\00\00\00\00\00\00\00m\00\00\00\01\00\00\00" }>, align 8
@str.5 = internal constant [28 x i8] c"attempt to add with overflow"
@alloc_37d2e53432a03a1f90b3e7253015eaf9 = private unnamed_addr constant <{ [4 x i8] }> <{ [4 x i8] c"None" }>, align 1
@alloc_9535bf4c204f3eb9b19ec2c83e446e52 = private unnamed_addr constant <{ [4 x i8] }> <{ [4 x i8] c"Some" }>, align 1
@vtable.6 = private constant <{ ptr, [16 x i8], ptr }> <{ ptr @"_ZN4core3ptr30drop_in_place$LT$$RF$usize$GT$17h32eb636796457be8E", [16 x i8] c"\08\00\00\00\00\00\00\00\08\00\00\00\00\00\00\00", ptr @"_ZN42_$LT$$RF$T$u20$as$u20$core..fmt..Debug$GT$3fmt17h2f985886c9c7670eE" }>, align 8, !dbg !180
@alloc_2f0a79449534a1619b5ebb31c2960f09 = private unnamed_addr constant <{ ptr, [16 x i8] }> <{ ptr @alloc_45ebd6709556441a1f7c99a862f2de99, [16 x i8] c"O\00\00\00\00\00\00\00;\04\00\00$\00\00\00" }>, align 8
@alloc_687e6c7b003194259ad59275feb12360 = private unnamed_addr constant <{ [22 x i8] }> <{ [22 x i8] c"src/bin/grade-check.rs" }>, align 1
@alloc_107a0d31ddba68f1eb01cb46c0cd5092 = private unnamed_addr constant <{ ptr, [16 x i8] }> <{ ptr @alloc_687e6c7b003194259ad59275feb12360, [16 x i8] c"\16\00\00\00\00\00\00\00\0A\00\00\00\1C\00\00\00" }>, align 8
@alloc_1ed1dff71e89a085efdee0faa5cf8354 = private unnamed_addr constant <{ ptr, [16 x i8] }> <{ ptr @alloc_687e6c7b003194259ad59275feb12360, [16 x i8] c"\16\00\00\00\00\00\00\00\0B\00\00\00\19\00\00\00" }>, align 8
@alloc_a135f19d506092e9865938554689af7a = private unnamed_addr constant <{ [14 x i8] }> <{ [14 x i8] c"Opening file: " }>, align 1
@alloc_49a1e817e911805af64bbc7efb390101 = private unnamed_addr constant <{ [1 x i8] }> <{ [1 x i8] c"\0A" }>, align 1
@alloc_98c043ea6441ca8efb87d1f7333cfa84 = private unnamed_addr constant <{ ptr, [8 x i8], ptr, [8 x i8] }> <{ ptr @alloc_a135f19d506092e9865938554689af7a, [8 x i8] c"\0E\00\00\00\00\00\00\00", ptr @alloc_49a1e817e911805af64bbc7efb390101, [8 x i8] c"\01\00\00\00\00\00\00\00" }>, align 8
@alloc_35361d3032763916fd1d0631d1ac4360 = private unnamed_addr constant <{ ptr, [16 x i8] }> <{ ptr @alloc_687e6c7b003194259ad59275feb12360, [16 x i8] c"\16\00\00\00\00\00\00\00\12\00\00\005\00\00\00" }>, align 8
@alloc_b84e887b2ad206e67a0d43e6433810c9 = private unnamed_addr constant <{ ptr, [16 x i8] }> <{ ptr @alloc_687e6c7b003194259ad59275feb12360, [16 x i8] c"\16\00\00\00\00\00\00\00\14\00\00\00)\00\00\00" }>, align 8
@alloc_4f5a147cfab1b053f3a6434d2dffa209 = private unnamed_addr constant <{ ptr, [16 x i8] }> <{ ptr @alloc_687e6c7b003194259ad59275feb12360, [16 x i8] c"\16\00\00\00\00\00\00\00\14\00\00\007\00\00\00" }>, align 8
@alloc_45cb12c0b79adac377a74cd33732bf5c = private unnamed_addr constant <{ ptr, [16 x i8] }> <{ ptr @alloc_687e6c7b003194259ad59275feb12360, [16 x i8] c"\16\00\00\00\00\00\00\00\14\00\00\001\00\00\00" }>, align 8
@alloc_4ed11f17954caf7854f80f02ae34907e = private unnamed_addr constant <{ ptr, [8 x i8], ptr, [8 x i8] }> <{ ptr @alloc_513570631223a12912d85da2bec3b15a, [8 x i8] zeroinitializer, ptr @alloc_49a1e817e911805af64bbc7efb390101, [8 x i8] c"\01\00\00\00\00\00\00\00" }>, align 8
@alloc_645fab50cfbe04568f2af1f36b435f61 = private unnamed_addr constant <{ [13 x i8] }> <{ [13 x i8] c"No grade for " }>, align 1
@alloc_826638cdaa9e025e39e3d8be9e16399b = private unnamed_addr constant <{ ptr, [8 x i8], ptr, [8 x i8] }> <{ ptr @alloc_645fab50cfbe04568f2af1f36b435f61, [8 x i8] c"\0D\00\00\00\00\00\00\00", ptr @alloc_49a1e817e911805af64bbc7efb390101, [8 x i8] c"\01\00\00\00\00\00\00\00" }>, align 8
@alloc_2af44706c0212a6497376c63b19cc4ab = private unnamed_addr constant <{ [20 x i8] }> <{ [20 x i8] c"Unable to open file\0A" }>, align 1
@alloc_ff8cf40499fdd049944e2ff339ba91ee = private unnamed_addr constant <{ ptr, [8 x i8] }> <{ ptr @alloc_2af44706c0212a6497376c63b19cc4ab, [8 x i8] c"\14\00\00\00\00\00\00\00" }>, align 8
@alloc_7dd1ea3ac1506d8e1ab5a1975e6241cd = private unnamed_addr constant <{ [39 x i8] }> <{ [39 x i8] c"Provide a student name and grades file\0A" }>, align 1
@alloc_da1818c52ee5f81d2b9285265f12e82b = private unnamed_addr constant <{ ptr, [8 x i8] }> <{ ptr @alloc_7dd1ea3ac1506d8e1ab5a1975e6241cd, [8 x i8] c"'\00\00\00\00\00\00\00" }>, align 8
@__rustc_debug_gdb_scripts_section__ = linkonce_odr unnamed_addr constant [34 x i8] c"\01gdb_load_rust_pretty_printers.py\00", section ".debug_gdb_scripts", align 1

; <alloc::vec::into_iter::IntoIter<T,A> as core::iter::traits::iterator::Iterator>::size_hint
; Function Attrs: inlinehint nonlazybind uwtable
define internal void @"_ZN103_$LT$alloc..vec..into_iter..IntoIter$LT$T$C$A$GT$$u20$as$u20$core..iter..traits..iterator..Iterator$GT$9size_hint17h5a3ae92d3a48557aE"(ptr sret({ i64, { i64, i64 } }) align 8 %_0, ptr align 8 %self) unnamed_addr #0 !dbg !293 {
start:
  %rhs.dbg.spill = alloca i64, align 8
  %self.dbg.spill8 = alloca ptr, align 8
  %self.dbg.spill6 = alloca i64, align 8
  %self.dbg.spill4 = alloca ptr, align 8
  %pointee_size.dbg.spill = alloca i64, align 8
  %origin.dbg.spill = alloca ptr, align 8
  %self.dbg.spill2 = alloca ptr, align 8
  %self.dbg.spill = alloca ptr, align 8
  %_11 = alloca { i64, i64 }, align 8
  %exact = alloca i64, align 8
  store ptr %self, ptr %self.dbg.spill, align 8
  call void @llvm.dbg.declare(metadata ptr %self.dbg.spill, metadata !365, metadata !DIExpression()), !dbg !368
  call void @llvm.dbg.declare(metadata ptr %exact, metadata !366, metadata !DIExpression()), !dbg !369
  br i1 false, label %bb1, label %bb2, !dbg !370

bb2:                                              ; preds = %start
  %0 = getelementptr inbounds %"alloc::vec::into_iter::IntoIter<std::ffi::os_str::OsString>", ptr %self, i32 0, i32 3, !dbg !371
  %self1 = load ptr, ptr %0, align 8, !dbg !371, !noundef !23
  store ptr %self1, ptr %self.dbg.spill2, align 8, !dbg !371
  call void @llvm.dbg.declare(metadata ptr %self.dbg.spill2, metadata !372, metadata !DIExpression()), !dbg !386
  call void @llvm.dbg.declare(metadata ptr %self.dbg.spill2, metadata !382, metadata !DIExpression()), !dbg !388
  call void @llvm.dbg.declare(metadata ptr %self.dbg.spill2, metadata !389, metadata !DIExpression()), !dbg !399
  %1 = getelementptr inbounds %"alloc::vec::into_iter::IntoIter<std::ffi::os_str::OsString>", ptr %self, i32 0, i32 2, !dbg !402
  %origin = load ptr, ptr %1, align 8, !dbg !402, !noundef !23
  store ptr %origin, ptr %origin.dbg.spill, align 8, !dbg !402
  call void @llvm.dbg.declare(metadata ptr %origin.dbg.spill, metadata !381, metadata !DIExpression()), !dbg !403
  call void @llvm.dbg.declare(metadata ptr %origin.dbg.spill, metadata !398, metadata !DIExpression()), !dbg !399
  store i64 24, ptr %pointee_size.dbg.spill, align 8, !dbg !404
  call void @llvm.dbg.declare(metadata ptr %pointee_size.dbg.spill, metadata !384, metadata !DIExpression()), !dbg !411
  br i1 true, label %bb5, label %bb7, !dbg !412

bb1:                                              ; preds = %start
  %2 = getelementptr inbounds %"alloc::vec::into_iter::IntoIter<std::ffi::os_str::OsString>", ptr %self, i32 0, i32 3, !dbg !413
  %self3 = load ptr, ptr %2, align 8, !dbg !413, !noundef !23
  store ptr %self3, ptr %self.dbg.spill4, align 8, !dbg !413
  call void @llvm.dbg.declare(metadata ptr %self.dbg.spill4, metadata !414, metadata !DIExpression()), !dbg !422
  call void @llvm.dbg.declare(metadata ptr %self.dbg.spill4, metadata !424, metadata !DIExpression()), !dbg !434
  %self5 = ptrtoint ptr %self3 to i64, !dbg !436
  store i64 %self5, ptr %self.dbg.spill6, align 8, !dbg !436
  call void @llvm.dbg.declare(metadata ptr %self.dbg.spill6, metadata !437, metadata !DIExpression()), !dbg !449
  %3 = getelementptr inbounds %"alloc::vec::into_iter::IntoIter<std::ffi::os_str::OsString>", ptr %self, i32 0, i32 2, !dbg !451
  %self7 = load ptr, ptr %3, align 8, !dbg !451, !noundef !23
  store ptr %self7, ptr %self.dbg.spill8, align 8, !dbg !451
  call void @llvm.dbg.declare(metadata ptr %self.dbg.spill8, metadata !420, metadata !DIExpression()), !dbg !452
  call void @llvm.dbg.declare(metadata ptr %self.dbg.spill8, metadata !430, metadata !DIExpression()), !dbg !454
  %rhs = ptrtoint ptr %self7 to i64, !dbg !456
  store i64 %rhs, ptr %rhs.dbg.spill, align 8, !dbg !456
  call void @llvm.dbg.declare(metadata ptr %rhs.dbg.spill, metadata !448, metadata !DIExpression()), !dbg !449
  %4 = sub i64 %self5, %rhs, !dbg !449
  store i64 %4, ptr %exact, align 8, !dbg !449
  br label %bb4, !dbg !457

bb7:                                              ; preds = %bb5, %bb2
; call core::panicking::panic
  call void @_ZN4core9panicking5panic17h195fc2a96298d4c3E(ptr align 1 @alloc_ec595fc0e82ef92fc59bd74f68296eae, i64 73, ptr align 8 @alloc_c90645318af9ade3fb5802f5eb288e75) #18, !dbg !458
  unreachable, !dbg !458

bb5:                                              ; preds = %bb2
  br i1 true, label %bb6, label %bb7, !dbg !459

bb6:                                              ; preds = %bb5
  %5 = ptrtoint ptr %self1 to i64, !dbg !460
  %6 = ptrtoint ptr %origin to i64, !dbg !460
  %7 = sub nuw i64 %5, %6, !dbg !460
  %8 = udiv exact i64 %7, 24, !dbg !460
  store i64 %8, ptr %exact, align 8, !dbg !460
  br label %bb4, !dbg !457

bb4:                                              ; preds = %bb1, %bb6
  %_10 = load i64, ptr %exact, align 8, !dbg !461, !noundef !23
  %_12 = load i64, ptr %exact, align 8, !dbg !462, !noundef !23
  %9 = getelementptr inbounds { i64, i64 }, ptr %_11, i32 0, i32 1, !dbg !463
  store i64 %_12, ptr %9, align 8, !dbg !463
  store i64 1, ptr %_11, align 8, !dbg !463
  store i64 %_10, ptr %_0, align 8, !dbg !464
  %10 = getelementptr inbounds { i64, i64 }, ptr %_11, i32 0, i32 0, !dbg !464
  %11 = load i64, ptr %10, align 8, !dbg !464, !range !465, !noundef !23
  %12 = getelementptr inbounds { i64, i64 }, ptr %_11, i32 0, i32 1, !dbg !464
  %13 = load i64, ptr %12, align 8, !dbg !464
  %14 = getelementptr inbounds { i64, { i64, i64 } }, ptr %_0, i32 0, i32 1, !dbg !464
  %15 = getelementptr inbounds { i64, i64 }, ptr %14, i32 0, i32 0, !dbg !464
  store i64 %11, ptr %15, align 8, !dbg !464
  %16 = getelementptr inbounds { i64, i64 }, ptr %14, i32 0, i32 1, !dbg !464
  store i64 %13, ptr %16, align 8, !dbg !464
  ret void, !dbg !466
}

; <alloc::string::String as core::ops::index::Index<core::ops::range::Range<usize>>>::index
; Function Attrs: inlinehint nonlazybind uwtable
define internal { ptr, i64 } @"_ZN109_$LT$alloc..string..String$u20$as$u20$core..ops..index..Index$LT$core..ops..range..Range$LT$usize$GT$$GT$$GT$5index17h9abdada55576e0e4E"(ptr align 8 %self, i64 %index.0, i64 %index.1, ptr align 8 %0) unnamed_addr #0 !dbg !467 {
start:
  %s.dbg.spill = alloca { ptr, i64 }, align 8
  %end.dbg.spill = alloca i64, align 8
  %start.dbg.spill = alloca i64, align 8
  %self.dbg.spill5 = alloca { ptr, i64 }, align 8
  %v.dbg.spill = alloca { ptr, i64 }, align 8
  %data_address.dbg.spill = alloca ptr, align 8
  %len.dbg.spill = alloca i64, align 8
  %data.dbg.spill = alloca ptr, align 8
  %self.dbg.spill4 = alloca ptr, align 8
  %self.dbg.spill2 = alloca ptr, align 8
  %self.dbg.spill1 = alloca ptr, align 8
  %index.dbg.spill = alloca { i64, i64 }, align 8
  %self.dbg.spill = alloca ptr, align 8
  %_18 = alloca { ptr, i64 }, align 8
  %_15 = alloca { ptr, i64 }, align 8
  %_14 = alloca %"core::ptr::metadata::PtrRepr<[u8]>", align 8
  %_index.dbg.spill = alloca %"core::ops::range::RangeFull", align 1
  call void @llvm.dbg.declare(metadata ptr %_index.dbg.spill, metadata !497, metadata !DIExpression()), !dbg !506
  store ptr %self, ptr %self.dbg.spill, align 8, !dbg !506
  call void @llvm.dbg.declare(metadata ptr %self.dbg.spill, metadata !495, metadata !DIExpression()), !dbg !508
  call void @llvm.dbg.declare(metadata ptr %self.dbg.spill, metadata !505, metadata !DIExpression()), !dbg !509
  %1 = getelementptr inbounds { i64, i64 }, ptr %index.dbg.spill, i32 0, i32 0, !dbg !506
  store i64 %index.0, ptr %1, align 8, !dbg !506
  %2 = getelementptr inbounds { i64, i64 }, ptr %index.dbg.spill, i32 0, i32 1, !dbg !506
  store i64 %index.1, ptr %2, align 8, !dbg !506
  call void @llvm.dbg.declare(metadata ptr %index.dbg.spill, metadata !496, metadata !DIExpression()), !dbg !510
  call void @llvm.dbg.declare(metadata ptr %index.dbg.spill, metadata !511, metadata !DIExpression()), !dbg !524
  call void @llvm.dbg.declare(metadata ptr %index.dbg.spill, metadata !526, metadata !DIExpression()), !dbg !539
  store ptr %self, ptr %self.dbg.spill1, align 8, !dbg !541
  call void @llvm.dbg.declare(metadata ptr %self.dbg.spill1, metadata !542, metadata !DIExpression()), !dbg !555
  call void @llvm.dbg.declare(metadata ptr %self.dbg.spill1, metadata !556, metadata !DIExpression()), !dbg !563
  store ptr %self, ptr %self.dbg.spill2, align 8, !dbg !565
  call void @llvm.dbg.declare(metadata ptr %self.dbg.spill2, metadata !566, metadata !DIExpression()), !dbg !576
  %self3 = load ptr, ptr %self, align 8, !dbg !578, !nonnull !23, !noundef !23
  store ptr %self3, ptr %self.dbg.spill4, align 8, !dbg !578
  call void @llvm.dbg.declare(metadata ptr %self.dbg.spill4, metadata !579, metadata !DIExpression()), !dbg !587
  call void @llvm.dbg.declare(metadata ptr %self.dbg.spill4, metadata !589, metadata !DIExpression()), !dbg !597
  store ptr %self3, ptr %data.dbg.spill, align 8, !dbg !565
  call void @llvm.dbg.declare(metadata ptr %data.dbg.spill, metadata !599, metadata !DIExpression()), !dbg !609
  call void @llvm.dbg.declare(metadata ptr %data.dbg.spill, metadata !611, metadata !DIExpression()), !dbg !623
  call void @llvm.dbg.declare(metadata ptr %data.dbg.spill, metadata !625, metadata !DIExpression()), !dbg !632
  %3 = getelementptr inbounds %"alloc::vec::Vec<u8>", ptr %self, i32 0, i32 1, !dbg !634
  %len = load i64, ptr %3, align 8, !dbg !634, !noundef !23
  store i64 %len, ptr %len.dbg.spill, align 8, !dbg !634
  call void @llvm.dbg.declare(metadata ptr %len.dbg.spill, metadata !608, metadata !DIExpression()), !dbg !635
  call void @llvm.dbg.declare(metadata ptr %len.dbg.spill, metadata !622, metadata !DIExpression()), !dbg !636
  call void @llvm.dbg.declare(metadata ptr %len.dbg.spill, metadata !637, metadata !DIExpression()), !dbg !646
  store ptr %self3, ptr %data_address.dbg.spill, align 8, !dbg !648
  call void @llvm.dbg.declare(metadata ptr %data_address.dbg.spill, metadata !645, metadata !DIExpression()), !dbg !649
  store ptr %self3, ptr %_15, align 8, !dbg !650
  %4 = getelementptr inbounds { ptr, i64 }, ptr %_15, i32 0, i32 1, !dbg !650
  store i64 %len, ptr %4, align 8, !dbg !650
  %5 = getelementptr inbounds { ptr, i64 }, ptr %_15, i32 0, i32 0, !dbg !651
  %6 = load ptr, ptr %5, align 8, !dbg !651, !noundef !23
  %7 = getelementptr inbounds { ptr, i64 }, ptr %_15, i32 0, i32 1, !dbg !651
  %8 = load i64, ptr %7, align 8, !dbg !651, !noundef !23
  %9 = getelementptr inbounds { ptr, i64 }, ptr %_14, i32 0, i32 0, !dbg !651
  store ptr %6, ptr %9, align 8, !dbg !651
  %10 = getelementptr inbounds { ptr, i64 }, ptr %_14, i32 0, i32 1, !dbg !651
  store i64 %8, ptr %10, align 8, !dbg !651
  %11 = getelementptr inbounds { ptr, i64 }, ptr %_14, i32 0, i32 0, !dbg !651
  %v.0 = load ptr, ptr %11, align 8, !dbg !651, !noundef !23
  %12 = getelementptr inbounds { ptr, i64 }, ptr %_14, i32 0, i32 1, !dbg !651
  %v.1 = load i64, ptr %12, align 8, !dbg !651, !noundef !23
  %13 = getelementptr inbounds { ptr, i64 }, ptr %v.dbg.spill, i32 0, i32 0, !dbg !651
  store ptr %v.0, ptr %13, align 8, !dbg !651
  %14 = getelementptr inbounds { ptr, i64 }, ptr %v.dbg.spill, i32 0, i32 1, !dbg !651
  store i64 %v.1, ptr %14, align 8, !dbg !651
  call void @llvm.dbg.declare(metadata ptr %v.dbg.spill, metadata !652, metadata !DIExpression()), !dbg !660
  %15 = getelementptr inbounds { ptr, i64 }, ptr %self.dbg.spill5, i32 0, i32 0, !dbg !662
  store ptr %v.0, ptr %15, align 8, !dbg !662
  %16 = getelementptr inbounds { ptr, i64 }, ptr %self.dbg.spill5, i32 0, i32 1, !dbg !662
  store i64 %v.1, ptr %16, align 8, !dbg !662
  call void @llvm.dbg.declare(metadata ptr %self.dbg.spill5, metadata !521, metadata !DIExpression()), !dbg !663
  call void @llvm.dbg.declare(metadata ptr %self.dbg.spill5, metadata !533, metadata !DIExpression()), !dbg !664
  store i64 %index.0, ptr %start.dbg.spill, align 8, !dbg !665
  call void @llvm.dbg.declare(metadata ptr %start.dbg.spill, metadata !534, metadata !DIExpression()), !dbg !666
  store i64 %index.1, ptr %end.dbg.spill, align 8, !dbg !667
  call void @llvm.dbg.declare(metadata ptr %end.dbg.spill, metadata !536, metadata !DIExpression()), !dbg !668
; call core::str::traits::<impl core::slice::index::SliceIndex<str> for core::ops::range::Range<usize>>::get
  %17 = call { ptr, i64 } @"_ZN4core3str6traits108_$LT$impl$u20$core..slice..index..SliceIndex$LT$str$GT$$u20$for$u20$core..ops..range..Range$LT$usize$GT$$GT$3get17h553ab7fdb5664c5aE"(i64 %index.0, i64 %index.1, ptr align 1 %v.0, i64 %v.1), !dbg !669
  store { ptr, i64 } %17, ptr %_18, align 8, !dbg !669
  %18 = load ptr, ptr %_18, align 8, !dbg !669, !noundef !23
  %19 = ptrtoint ptr %18 to i64, !dbg !669
  %20 = icmp eq i64 %19, 0, !dbg !669
  %_19 = select i1 %20, i64 0, i64 1, !dbg !669
  %21 = icmp eq i64 %_19, 0, !dbg !670
  br i1 %21, label %bb2, label %bb4, !dbg !670

bb2:                                              ; preds = %start
; call core::str::slice_error_fail
  call void @_ZN4core3str16slice_error_fail17hb822a60a30984aeeE(ptr align 1 %v.0, i64 %v.1, i64 %index.0, i64 %index.1, ptr align 8 %0) #18, !dbg !671
  unreachable, !dbg !671

bb4:                                              ; preds = %start
  %22 = getelementptr inbounds { ptr, i64 }, ptr %_18, i32 0, i32 0, !dbg !672
  %s.0 = load ptr, ptr %22, align 8, !dbg !672, !nonnull !23, !align !673, !noundef !23
  %23 = getelementptr inbounds { ptr, i64 }, ptr %_18, i32 0, i32 1, !dbg !672
  %s.1 = load i64, ptr %23, align 8, !dbg !672, !noundef !23
  %24 = getelementptr inbounds { ptr, i64 }, ptr %s.dbg.spill, i32 0, i32 0, !dbg !672
  store ptr %s.0, ptr %24, align 8, !dbg !672
  %25 = getelementptr inbounds { ptr, i64 }, ptr %s.dbg.spill, i32 0, i32 1, !dbg !672
  store i64 %s.1, ptr %25, align 8, !dbg !672
  call void @llvm.dbg.declare(metadata ptr %s.dbg.spill, metadata !537, metadata !DIExpression()), !dbg !674
  %26 = insertvalue { ptr, i64 } poison, ptr %s.0, 0, !dbg !675
  %27 = insertvalue { ptr, i64 } %26, i64 %s.1, 1, !dbg !675
  ret { ptr, i64 } %27, !dbg !675

bb3:                                              ; No predecessors!
  unreachable, !dbg !669
}

; <alloc::vec::Vec<T> as alloc::vec::spec_from_iter_nested::SpecFromIterNested<T,I>>::from_iter
; Function Attrs: nonlazybind uwtable
define internal void @"_ZN111_$LT$alloc..vec..Vec$LT$T$GT$$u20$as$u20$alloc..vec..spec_from_iter_nested..SpecFromIterNested$LT$T$C$I$GT$$GT$9from_iter17ha6334dee8cc18322E"(ptr sret(%"alloc::vec::Vec<alloc::string::String>") align 8 %_0, ptr align 8 %iterator) unnamed_addr #1 personality ptr @rust_eh_personality !dbg !676 {
start:
  %self.dbg.spill7 = alloca ptr, align 8
  %dst.dbg.spill = alloca ptr, align 8
  %self.dbg.spill6 = alloca ptr, align 8
  %self.dbg.spill5 = alloca ptr, align 8
  %self.dbg.spill4 = alloca ptr, align 8
  %initial_capacity.dbg.spill = alloca i64, align 8
  %v2.dbg.spill = alloca i64, align 8
  %0 = alloca i64, align 8
  %lower.dbg.spill = alloca i64, align 8
  %1 = alloca { ptr, i32 }, align 8
  %_21 = alloca i8, align 1
  %_19 = alloca %"std::env::Args", align 8
  %src = alloca %"alloc::string::String", align 8
  %vector2 = alloca %"alloc::vec::Vec<alloc::string::String>", align 8
  %_8 = alloca { i64, { i64, i64 } }, align 8
  %element = alloca %"alloc::string::String", align 8
  %_3 = alloca %"core::option::Option<alloc::string::String>", align 8
  %vector = alloca %"alloc::vec::Vec<alloc::string::String>", align 8
  %new_len.dbg.spill = alloca i64, align 8
  %alloc.dbg.spill1 = alloca %"alloc::alloc::Global", align 1
  %alloc.dbg.spill = alloca %"alloc::alloc::Global", align 1
  %self.dbg.spill = alloca i64, align 8
  %v1.dbg.spill = alloca i64, align 8
  %rhs.dbg.spill = alloca i64, align 8
  store i64 1, ptr %rhs.dbg.spill, align 8, !dbg !728
  call void @llvm.dbg.declare(metadata ptr %rhs.dbg.spill, metadata !734, metadata !DIExpression()), !dbg !728
  store i64 4, ptr %v1.dbg.spill, align 8, !dbg !736
  call void @llvm.dbg.declare(metadata ptr %v1.dbg.spill, metadata !741, metadata !DIExpression()), !dbg !736
  store i64 4, ptr %self.dbg.spill, align 8, !dbg !744
  call void @llvm.dbg.declare(metadata ptr %self.dbg.spill, metadata !749, metadata !DIExpression()), !dbg !744
  call void @llvm.dbg.declare(metadata ptr %alloc.dbg.spill, metadata !754, metadata !DIExpression()), !dbg !762
  call void @llvm.dbg.declare(metadata ptr %alloc.dbg.spill1, metadata !772, metadata !DIExpression()), !dbg !780
  store i64 1, ptr %new_len.dbg.spill, align 8, !dbg !782
  call void @llvm.dbg.declare(metadata ptr %new_len.dbg.spill, metadata !791, metadata !DIExpression()), !dbg !782
  call void @llvm.dbg.declare(metadata ptr %iterator, metadata !715, metadata !DIExpression()), !dbg !793
  call void @llvm.dbg.declare(metadata ptr %vector, metadata !716, metadata !DIExpression()), !dbg !794
  call void @llvm.dbg.declare(metadata ptr %element, metadata !718, metadata !DIExpression()), !dbg !795
  call void @llvm.dbg.declare(metadata ptr %vector2, metadata !724, metadata !DIExpression()), !dbg !796
  call void @llvm.dbg.declare(metadata ptr %src, metadata !797, metadata !DIExpression()), !dbg !805
  store i8 1, ptr %_21, align 1, !dbg !807
; invoke <std::env::Args as core::iter::traits::iterator::Iterator>::next
  invoke void @"_ZN73_$LT$std..env..Args$u20$as$u20$core..iter..traits..iterator..Iterator$GT$4next17h9c42ac06f6262e78E"(ptr sret(%"core::option::Option<alloc::string::String>") align 8 %_3, ptr align 8 %iterator)
          to label %bb1 unwind label %cleanup, !dbg !808

bb12:                                             ; preds = %bb9, %bb10, %bb7, %cleanup
  %2 = load i8, ptr %_21, align 1, !dbg !809, !range !810, !noundef !23
  %3 = trunc i8 %2 to i1, !dbg !809
  br i1 %3, label %bb11, label %bb8, !dbg !809

cleanup:                                          ; preds = %start
  %4 = landingpad { ptr, i32 }
          cleanup
  %5 = extractvalue { ptr, i32 } %4, 0
  %6 = extractvalue { ptr, i32 } %4, 1
  %7 = getelementptr inbounds { ptr, i32 }, ptr %1, i32 0, i32 0
  store ptr %5, ptr %7, align 8
  %8 = getelementptr inbounds { ptr, i32 }, ptr %1, i32 0, i32 1
  store i32 %6, ptr %8, align 8
  br label %bb12

bb1:                                              ; preds = %start
  %9 = load ptr, ptr %_3, align 8, !dbg !808, !noundef !23
  %10 = ptrtoint ptr %9 to i64, !dbg !808
  %11 = icmp eq i64 %10, 0, !dbg !808
  %_5 = select i1 %11, i64 0, i64 1, !dbg !808
  %12 = icmp eq i64 %_5, 0, !dbg !811
  br i1 %12, label %bb13, label %bb2, !dbg !811

bb13:                                             ; preds = %bb1
  %13 = getelementptr inbounds { ptr, i64 }, ptr %_0, i32 0, i32 0, !dbg !812
  store ptr inttoptr (i64 8 to ptr), ptr %13, align 8, !dbg !812
  %14 = getelementptr inbounds { ptr, i64 }, ptr %_0, i32 0, i32 1, !dbg !812
  store i64 0, ptr %14, align 8, !dbg !812
  %15 = getelementptr inbounds %"alloc::vec::Vec<alloc::string::String>", ptr %_0, i32 0, i32 1, !dbg !812
  store i64 0, ptr %15, align 8, !dbg !812
; call core::ptr::drop_in_place<std::env::Args>
  call void @"_ZN4core3ptr35drop_in_place$LT$std..env..Args$GT$17hbadb03ed3c95ad10E"(ptr align 8 %iterator), !dbg !809
  br label %bb6, !dbg !809

bb2:                                              ; preds = %bb1
  call void @llvm.memcpy.p0.p0.i64(ptr align 8 %element, ptr align 8 %_3, i64 24, i1 false), !dbg !819
; invoke <std::env::Args as core::iter::traits::iterator::Iterator>::size_hint
  invoke void @"_ZN73_$LT$std..env..Args$u20$as$u20$core..iter..traits..iterator..Iterator$GT$9size_hint17h4280eebcc669e0a3E"(ptr sret({ i64, { i64, i64 } }) align 8 %_8, ptr align 8 %iterator)
          to label %bb4 unwind label %cleanup3, !dbg !820

bb6:                                              ; preds = %bb5, %bb13
  ret void, !dbg !821

bb10:                                             ; preds = %cleanup3
  br i1 true, label %bb9, label %bb12, !dbg !822

cleanup3:                                         ; preds = %bb15, %bb4, %bb2
  %16 = landingpad { ptr, i32 }
          cleanup
  %17 = extractvalue { ptr, i32 } %16, 0
  %18 = extractvalue { ptr, i32 } %16, 1
  %19 = getelementptr inbounds { ptr, i32 }, ptr %1, i32 0, i32 0
  store ptr %17, ptr %19, align 8
  %20 = getelementptr inbounds { ptr, i32 }, ptr %1, i32 0, i32 1
  store i32 %18, ptr %20, align 8
  br label %bb10

bb4:                                              ; preds = %bb2
  %lower = load i64, ptr %_8, align 8, !dbg !823, !noundef !23
  store i64 %lower, ptr %lower.dbg.spill, align 8, !dbg !823
  call void @llvm.dbg.declare(metadata ptr %lower.dbg.spill, metadata !720, metadata !DIExpression()), !dbg !824
  call void @llvm.dbg.declare(metadata ptr %lower.dbg.spill, metadata !733, metadata !DIExpression()), !dbg !728
  %21 = call i64 @llvm.uadd.sat.i64(i64 %lower, i64 1), !dbg !728
  store i64 %21, ptr %0, align 8, !dbg !728
  %v2 = load i64, ptr %0, align 8, !dbg !728, !noundef !23
  store i64 %v2, ptr %v2.dbg.spill, align 8, !dbg !728
  call void @llvm.dbg.declare(metadata ptr %v2.dbg.spill, metadata !742, metadata !DIExpression()), !dbg !825
  call void @llvm.dbg.declare(metadata ptr %v2.dbg.spill, metadata !750, metadata !DIExpression()), !dbg !826
; invoke core::cmp::max_by
  %initial_capacity = invoke i64 @_ZN4core3cmp6max_by17hf6a729ffb5e34c21E(i64 4, i64 %v2)
          to label %bb15 unwind label %cleanup3, !dbg !827

bb15:                                             ; preds = %bb4
  store i64 %initial_capacity, ptr %initial_capacity.dbg.spill, align 8, !dbg !827
  call void @llvm.dbg.declare(metadata ptr %initial_capacity.dbg.spill, metadata !722, metadata !DIExpression()), !dbg !828
  call void @llvm.dbg.declare(metadata ptr %initial_capacity.dbg.spill, metadata !770, metadata !DIExpression()), !dbg !829
  call void @llvm.dbg.declare(metadata ptr %initial_capacity.dbg.spill, metadata !761, metadata !DIExpression()), !dbg !830
  call void @llvm.dbg.declare(metadata ptr %initial_capacity.dbg.spill, metadata !779, metadata !DIExpression()), !dbg !831
; invoke alloc::raw_vec::RawVec<T,A>::allocate_in
  %22 = invoke { ptr, i64 } @"_ZN5alloc7raw_vec19RawVec$LT$T$C$A$GT$11allocate_in17h2d2c0be96d3eaf06E"(i64 %initial_capacity, i1 zeroext false)
          to label %bb16 unwind label %cleanup3, !dbg !832

bb16:                                             ; preds = %bb15
  %_24.0 = extractvalue { ptr, i64 } %22, 0, !dbg !832
  %_24.1 = extractvalue { ptr, i64 } %22, 1, !dbg !832
  %23 = getelementptr inbounds { ptr, i64 }, ptr %vector2, i32 0, i32 0, !dbg !833
  store ptr %_24.0, ptr %23, align 8, !dbg !833
  %24 = getelementptr inbounds { ptr, i64 }, ptr %vector2, i32 0, i32 1, !dbg !833
  store i64 %_24.1, ptr %24, align 8, !dbg !833
  %25 = getelementptr inbounds %"alloc::vec::Vec<alloc::string::String>", ptr %vector2, i32 0, i32 1, !dbg !833
  store i64 0, ptr %25, align 8, !dbg !833
  store ptr %vector2, ptr %self.dbg.spill4, align 8, !dbg !834
  call void @llvm.dbg.declare(metadata ptr %self.dbg.spill4, metadata !835, metadata !DIExpression()), !dbg !842
  store ptr %vector2, ptr %self.dbg.spill5, align 8, !dbg !844
  call void @llvm.dbg.declare(metadata ptr %self.dbg.spill5, metadata !845, metadata !DIExpression()), !dbg !853
  %self = load ptr, ptr %vector2, align 8, !dbg !855, !nonnull !23, !noundef !23
  store ptr %self, ptr %self.dbg.spill6, align 8, !dbg !855
  call void @llvm.dbg.declare(metadata ptr %self.dbg.spill6, metadata !856, metadata !DIExpression()), !dbg !863
  call void @llvm.dbg.declare(metadata ptr %self.dbg.spill6, metadata !865, metadata !DIExpression()), !dbg !872
  store ptr %self, ptr %dst.dbg.spill, align 8, !dbg !874
  call void @llvm.dbg.declare(metadata ptr %dst.dbg.spill, metadata !804, metadata !DIExpression()), !dbg !875
  call void @llvm.memcpy.p0.p0.i64(ptr align 8 %src, ptr align 8 %element, i64 24, i1 false), !dbg !876
  call void @llvm.memcpy.p0.p0.i64(ptr align 8 %self, ptr align 8 %src, i64 24, i1 false), !dbg !877
  store ptr %vector2, ptr %self.dbg.spill7, align 8, !dbg !878
  call void @llvm.dbg.declare(metadata ptr %self.dbg.spill7, metadata !790, metadata !DIExpression()), !dbg !879
  call void @llvm.dbg.declare(metadata ptr %self.dbg.spill7, metadata !880, metadata !DIExpression()), !dbg !888
  %26 = getelementptr inbounds %"alloc::vec::Vec<alloc::string::String>", ptr %vector2, i32 0, i32 1, !dbg !890
  store i64 1, ptr %26, align 8, !dbg !890
  call void @llvm.memcpy.p0.p0.i64(ptr align 8 %vector, ptr align 8 %vector2, i64 24, i1 false), !dbg !891
  store i8 0, ptr %_21, align 1, !dbg !892
  call void @llvm.memcpy.p0.p0.i64(ptr align 8 %_19, ptr align 8 %iterator, i64 32, i1 false), !dbg !892
; invoke <alloc::vec::Vec<T,A> as alloc::vec::spec_extend::SpecExtend<T,I>>::spec_extend
  invoke void @"_ZN97_$LT$alloc..vec..Vec$LT$T$C$A$GT$$u20$as$u20$alloc..vec..spec_extend..SpecExtend$LT$T$C$I$GT$$GT$11spec_extend17h1515e394e7d7946dE"(ptr align 8 %vector, ptr align 8 %_19)
          to label %bb5 unwind label %cleanup8, !dbg !893

bb7:                                              ; preds = %cleanup8
; invoke core::ptr::drop_in_place<alloc::vec::Vec<alloc::string::String>>
  invoke void @"_ZN4core3ptr65drop_in_place$LT$alloc..vec..Vec$LT$alloc..string..String$GT$$GT$17hf530b0f346202400E"(ptr align 8 %vector) #19
          to label %bb12 unwind label %terminate, !dbg !809

cleanup8:                                         ; preds = %bb16
  %27 = landingpad { ptr, i32 }
          cleanup
  %28 = extractvalue { ptr, i32 } %27, 0
  %29 = extractvalue { ptr, i32 } %27, 1
  %30 = getelementptr inbounds { ptr, i32 }, ptr %1, i32 0, i32 0
  store ptr %28, ptr %30, align 8
  %31 = getelementptr inbounds { ptr, i32 }, ptr %1, i32 0, i32 1
  store i32 %29, ptr %31, align 8
  br label %bb7

bb5:                                              ; preds = %bb16
  call void @llvm.memcpy.p0.p0.i64(ptr align 8 %_0, ptr align 8 %vector, i64 24, i1 false), !dbg !894
  br label %bb6, !dbg !809

terminate:                                        ; preds = %bb11, %bb9, %bb7
  %32 = landingpad { ptr, i32 }
          filter [0 x ptr] zeroinitializer
  %33 = extractvalue { ptr, i32 } %32, 0
  %34 = extractvalue { ptr, i32 } %32, 1
; call core::panicking::panic_in_cleanup
  call void @_ZN4core9panicking16panic_in_cleanup17hd44bb2114362504eE() #20, !dbg !895
  unreachable, !dbg !895

bb9:                                              ; preds = %bb10
; invoke core::ptr::drop_in_place<alloc::string::String>
  invoke void @"_ZN4core3ptr42drop_in_place$LT$alloc..string..String$GT$17hc94d05d46e47316eE"(ptr align 8 %element) #19
          to label %bb12 unwind label %terminate, !dbg !822

bb3:                                              ; No predecessors!
  unreachable, !dbg !808

bb8:                                              ; preds = %bb11, %bb12
  %35 = load ptr, ptr %1, align 8, !dbg !895, !noundef !23
  %36 = getelementptr inbounds { ptr, i32 }, ptr %1, i32 0, i32 1, !dbg !895
  %37 = load i32, ptr %36, align 8, !dbg !895, !noundef !23
  %38 = insertvalue { ptr, i32 } poison, ptr %35, 0, !dbg !895
  %39 = insertvalue { ptr, i32 } %38, i32 %37, 1, !dbg !895
  resume { ptr, i32 } %39, !dbg !895

bb11:                                             ; preds = %bb12
; invoke core::ptr::drop_in_place<std::env::Args>
  invoke void @"_ZN4core3ptr35drop_in_place$LT$std..env..Args$GT$17hbadb03ed3c95ad10E"(ptr align 8 %iterator) #19
          to label %bb8 unwind label %terminate, !dbg !809
}

; <<alloc::vec::into_iter::IntoIter<T,A> as core::ops::drop::Drop>::drop::DropGuard<T,A> as core::ops::drop::Drop>::drop
; Function Attrs: nonlazybind uwtable
define internal void @"_ZN157_$LT$$LT$alloc..vec..into_iter..IntoIter$LT$T$C$A$GT$$u20$as$u20$core..ops..drop..Drop$GT$..drop..DropGuard$LT$T$C$A$GT$$u20$as$u20$core..ops..drop..Drop$GT$4drop17hd287c0eb16f89d7aE"(ptr align 8 %self) unnamed_addr #1 personality ptr @rust_eh_personality !dbg !896 {
start:
  %0 = alloca { ptr, i32 }, align 8
  %capacity.dbg.spill = alloca i64, align 8
  %ptr.dbg.spill = alloca ptr, align 8
  %self.dbg.spill3 = alloca ptr, align 8
  %src.dbg.spill = alloca ptr, align 8
  %slot.dbg.spill = alloca ptr, align 8
  %alloc.dbg.spill1 = alloca %"alloc::alloc::Global", align 1
  %alloc.dbg.spill = alloca %"alloc::alloc::Global", align 1
  %self.dbg.spill = alloca ptr, align 8
  %_17 = alloca ptr, align 8
  %_16 = alloca ptr, align 8
  %_4 = alloca { ptr, i64 }, align 8
  store ptr %self, ptr %self.dbg.spill, align 8
  call void @llvm.dbg.declare(metadata ptr %self.dbg.spill, metadata !908, metadata !DIExpression()), !dbg !911
  call void @llvm.dbg.declare(metadata ptr %alloc.dbg.spill, metadata !909, metadata !DIExpression()), !dbg !912
  call void @llvm.dbg.declare(metadata ptr %alloc.dbg.spill1, metadata !913, metadata !DIExpression()), !dbg !932
  %_9 = load ptr, ptr %self, align 8, !dbg !934, !nonnull !23, !align !935, !noundef !23
  %slot = getelementptr inbounds %"alloc::vec::into_iter::IntoIter<std::ffi::os_str::OsString>", ptr %_9, i32 0, i32 5, !dbg !934
  store ptr %slot, ptr %slot.dbg.spill, align 8, !dbg !934
  call void @llvm.dbg.declare(metadata ptr %slot.dbg.spill, metadata !936, metadata !DIExpression()), !dbg !945
  %src = getelementptr inbounds %"alloc::vec::into_iter::IntoIter<std::ffi::os_str::OsString>", ptr %_9, i32 0, i32 5, !dbg !947
  store ptr %src, ptr %src.dbg.spill, align 8, !dbg !947
  call void @llvm.dbg.declare(metadata ptr %src.dbg.spill, metadata !948, metadata !DIExpression()), !dbg !955
  call void @llvm.dbg.declare(metadata ptr %src.dbg.spill, metadata !957, metadata !DIExpression()), !dbg !963
  call void @llvm.dbg.declare(metadata ptr %src.dbg.spill, metadata !966, metadata !DIExpression()), !dbg !974
  call void @llvm.dbg.declare(metadata ptr %src.dbg.spill, metadata !976, metadata !DIExpression()), !dbg !980
  call void @llvm.dbg.declare(metadata ptr %src.dbg.spill, metadata !982, metadata !DIExpression()), !dbg !986
  %_10 = load ptr, ptr %self, align 8, !dbg !988, !nonnull !23, !align !935, !noundef !23
  %self2 = load ptr, ptr %_10, align 8, !dbg !988, !nonnull !23, !noundef !23
  store ptr %self2, ptr %self.dbg.spill3, align 8, !dbg !988
  call void @llvm.dbg.declare(metadata ptr %self.dbg.spill3, metadata !989, metadata !DIExpression()), !dbg !996
  store ptr %self2, ptr %ptr.dbg.spill, align 8, !dbg !998
  call void @llvm.dbg.declare(metadata ptr %ptr.dbg.spill, metadata !930, metadata !DIExpression()), !dbg !999
  call void @llvm.dbg.declare(metadata ptr %ptr.dbg.spill, metadata !1000, metadata !DIExpression()), !dbg !1007
  call void @llvm.dbg.declare(metadata ptr %ptr.dbg.spill, metadata !1009, metadata !DIExpression()), !dbg !1016
  call void @llvm.dbg.declare(metadata ptr %ptr.dbg.spill, metadata !1018, metadata !DIExpression()), !dbg !1027
  call void @llvm.dbg.declare(metadata ptr %ptr.dbg.spill, metadata !1030, metadata !DIExpression()), !dbg !1039
  %_11 = load ptr, ptr %self, align 8, !dbg !1041, !nonnull !23, !align !935, !noundef !23
  %1 = getelementptr inbounds %"alloc::vec::into_iter::IntoIter<std::ffi::os_str::OsString>", ptr %_11, i32 0, i32 1, !dbg !1041
  %capacity = load i64, ptr %1, align 8, !dbg !1041, !noundef !23
  store i64 %capacity, ptr %capacity.dbg.spill, align 8, !dbg !1041
  call void @llvm.dbg.declare(metadata ptr %capacity.dbg.spill, metadata !931, metadata !DIExpression()), !dbg !1042
  store ptr %self2, ptr %_17, align 8, !dbg !1043
  %2 = load ptr, ptr %_17, align 8, !dbg !1044, !nonnull !23, !noundef !23
  store ptr %2, ptr %_16, align 8, !dbg !1044
  %3 = load ptr, ptr %_16, align 8, !dbg !1045, !nonnull !23, !noundef !23
  store ptr %3, ptr %_4, align 8, !dbg !1045
  %4 = getelementptr inbounds { ptr, i64 }, ptr %_4, i32 0, i32 1, !dbg !1045
  store i64 %capacity, ptr %4, align 8, !dbg !1045
; invoke core::ptr::drop_in_place<alloc::raw_vec::RawVec<std::ffi::os_str::OsString>>
  invoke void @"_ZN4core3ptr77drop_in_place$LT$alloc..raw_vec..RawVec$LT$std..ffi..os_str..OsString$GT$$GT$17hdee201cdcfecb0cbE"(ptr align 8 %_4)
          to label %bb1 unwind label %cleanup, !dbg !1046

bb4:                                              ; preds = %cleanup
  br i1 false, label %bb3, label %bb2, !dbg !1047

cleanup:                                          ; preds = %start
  %5 = landingpad { ptr, i32 }
          cleanup
  %6 = extractvalue { ptr, i32 } %5, 0
  %7 = extractvalue { ptr, i32 } %5, 1
  %8 = getelementptr inbounds { ptr, i32 }, ptr %0, i32 0, i32 0
  store ptr %6, ptr %8, align 8
  %9 = getelementptr inbounds { ptr, i32 }, ptr %0, i32 0, i32 1
  store i32 %7, ptr %9, align 8
  br label %bb4

bb1:                                              ; preds = %start
  ret void, !dbg !1048

bb2:                                              ; preds = %bb3, %bb4
  %10 = load ptr, ptr %0, align 8, !dbg !1049, !noundef !23
  %11 = getelementptr inbounds { ptr, i32 }, ptr %0, i32 0, i32 1, !dbg !1049
  %12 = load i32, ptr %11, align 8, !dbg !1049, !noundef !23
  %13 = insertvalue { ptr, i32 } poison, ptr %10, 0, !dbg !1049
  %14 = insertvalue { ptr, i32 } %13, i32 %12, 1, !dbg !1049
  resume { ptr, i32 } %14, !dbg !1049

bb3:                                              ; preds = %bb4
  br label %bb2, !dbg !1047
}

; std::sys_common::backtrace::__rust_begin_short_backtrace
; Function Attrs: noinline nonlazybind uwtable
define internal void @_ZN3std10sys_common9backtrace28__rust_begin_short_backtrace17hac2bfb2fa376c319E(ptr %f) unnamed_addr #2 !dbg !1050 {
start:
  %f.dbg.spill = alloca ptr, align 8
  %result.dbg.spill = alloca {}, align 1
  %dummy.dbg.spill = alloca {}, align 1
  call void @llvm.dbg.declare(metadata ptr %dummy.dbg.spill, metadata !1062, metadata !DIExpression()), !dbg !1070
  call void @llvm.dbg.declare(metadata ptr %result.dbg.spill, metadata !1058, metadata !DIExpression()), !dbg !1072
  store ptr %f, ptr %f.dbg.spill, align 8, !dbg !1070
  call void @llvm.dbg.declare(metadata ptr %f.dbg.spill, metadata !1057, metadata !DIExpression()), !dbg !1073
; call core::ops::function::FnOnce::call_once
  call void @_ZN4core3ops8function6FnOnce9call_once17ha24bdd2c20d0b88eE(ptr %f), !dbg !1074
  call void asm sideeffect "", "~{memory}"(), !dbg !1075, !srcloc !1076
  ret void, !dbg !1077
}

; std::fs::read_to_string
; Function Attrs: nonlazybind uwtable
define internal void @_ZN3std2fs14read_to_string17h2ce4a11d55cee64dE(ptr sret(%"core::result::Result<alloc::string::String, std::io::error::Error>") align 8 %_0, ptr align 8 %0) unnamed_addr #1 personality ptr @rust_eh_personality !dbg !1078 {
start:
  %1 = alloca { ptr, i32 }, align 8
  %path = alloca ptr, align 8
  store ptr %0, ptr %path, align 8
  call void @llvm.dbg.declare(metadata ptr %path, metadata !1100, metadata !DIExpression()), !dbg !1103
; invoke <&T as core::convert::AsRef<U>>::as_ref
  %2 = invoke { ptr, i64 } @"_ZN55_$LT$$RF$T$u20$as$u20$core..convert..AsRef$LT$U$GT$$GT$6as_ref17h22cd4cc81a941736E"(ptr align 8 %path)
          to label %bb1 unwind label %cleanup, !dbg !1104

bb4:                                              ; preds = %cleanup
  %3 = load ptr, ptr %1, align 8, !dbg !1105, !noundef !23
  %4 = getelementptr inbounds { ptr, i32 }, ptr %1, i32 0, i32 1, !dbg !1105
  %5 = load i32, ptr %4, align 8, !dbg !1105, !noundef !23
  %6 = insertvalue { ptr, i32 } poison, ptr %3, 0, !dbg !1105
  %7 = insertvalue { ptr, i32 } %6, i32 %5, 1, !dbg !1105
  resume { ptr, i32 } %7, !dbg !1105

cleanup:                                          ; preds = %bb1, %start
  %8 = landingpad { ptr, i32 }
          cleanup
  %9 = extractvalue { ptr, i32 } %8, 0
  %10 = extractvalue { ptr, i32 } %8, 1
  %11 = getelementptr inbounds { ptr, i32 }, ptr %1, i32 0, i32 0
  store ptr %9, ptr %11, align 8
  %12 = getelementptr inbounds { ptr, i32 }, ptr %1, i32 0, i32 1
  store i32 %10, ptr %12, align 8
  br label %bb4

bb1:                                              ; preds = %start
  %_2.0 = extractvalue { ptr, i64 } %2, 0, !dbg !1104
  %_2.1 = extractvalue { ptr, i64 } %2, 1, !dbg !1104
; invoke std::fs::read_to_string::inner
  invoke void @_ZN3std2fs14read_to_string5inner17h6284013f7ee7b6e7E(ptr sret(%"core::result::Result<alloc::string::String, std::io::error::Error>") align 8 %_0, ptr align 1 %_2.0, i64 %_2.1)
          to label %bb2 unwind label %cleanup, !dbg !1106

bb2:                                              ; preds = %bb1
  ret void, !dbg !1107
}

; std::io::error::repr_bitpacked::decode_repr
; Function Attrs: inlinehint nonlazybind uwtable
define internal void @_ZN3std2io5error14repr_bitpacked11decode_repr17h5ab977347756d435E(ptr sret(%"std::io::error::ErrorData<alloc::boxed::Box<std::io::error::Custom>>") align 8 %_0, ptr %ptr) unnamed_addr #0 personality ptr @rust_eh_personality !dbg !1108 {
start:
  %custom.dbg.spill = alloca ptr, align 8
  %self.dbg.spill11 = alloca ptr, align 8
  %data_address.dbg.spill = alloca ptr, align 8
  %meta.dbg.spill = alloca ptr, align 8
  %self.dbg.spill9 = alloca ptr, align 8
  %0 = alloca ptr, align 8
  %self.dbg.spill8 = alloca ptr, align 8
  %self.dbg.spill7 = alloca ptr, align 8
  %ptr.dbg.spill6 = alloca ptr, align 8
  %kind.dbg.spill = alloca i8, align 1
  %f.dbg.spill = alloca ptr, align 8
  %1 = alloca { ptr, i32 }, align 8
  %kind_bits.dbg.spill = alloca i32, align 4
  %code.dbg.spill = alloca i32, align 4
  %self.dbg.spill5 = alloca ptr, align 8
  %make_custom.dbg.spill = alloca %"{closure@<std::io::error::repr_bitpacked::Repr as core::ops::drop::Drop>::drop::{closure#0}}", align 1
  %ptr.dbg.spill = alloca ptr, align 8
  %_51 = alloca %"core::ptr::metadata::PtrComponents<()>", align 8
  %_50 = alloca %"core::ptr::metadata::PtrRepr<()>", align 8
  %_26 = alloca i8, align 1
  %_24 = alloca ptr, align 8
  %self4 = alloca ptr, align 8
  %self = alloca i8, align 1
  %bits = alloca i64, align 8
  %metadata.dbg.spill = alloca {}, align 1
  %count.dbg.spill3 = alloca i64, align 8
  %rhs.dbg.spill = alloca i64, align 8
  %self.dbg.spill2 = alloca i64, align 8
  %self.dbg.spill = alloca i64, align 8
  %count.dbg.spill1 = alloca i64, align 8
  %count.dbg.spill = alloca i64, align 8
  %_unsafe_arg.dbg.spill = alloca %"core::fmt::rt::UnsafeArg", align 1
  %flags.dbg.spill = alloca i32, align 4
  %align.dbg.spill = alloca i8, align 1
  %fill.dbg.spill = alloca i32, align 4
  %position.dbg.spill = alloca i64, align 8
  store i64 0, ptr %position.dbg.spill, align 8, !dbg !1131
  call void @llvm.dbg.declare(metadata ptr %position.dbg.spill, metadata !1163, metadata !DIExpression()), !dbg !1131
  store i32 32, ptr %fill.dbg.spill, align 4, !dbg !1210
  call void @llvm.dbg.declare(metadata ptr %fill.dbg.spill, metadata !1164, metadata !DIExpression()), !dbg !1210
  store i8 3, ptr %align.dbg.spill, align 1, !dbg !1211
  call void @llvm.dbg.declare(metadata ptr %align.dbg.spill, metadata !1165, metadata !DIExpression()), !dbg !1211
  store i32 12, ptr %flags.dbg.spill, align 4, !dbg !1212
  call void @llvm.dbg.declare(metadata ptr %flags.dbg.spill, metadata !1166, metadata !DIExpression()), !dbg !1212
  call void @llvm.dbg.declare(metadata ptr %_unsafe_arg.dbg.spill, metadata !1213, metadata !DIExpression()), !dbg !1301
  store i64 1, ptr %count.dbg.spill, align 8, !dbg !1302
  call void @llvm.dbg.declare(metadata ptr %count.dbg.spill, metadata !1310, metadata !DIExpression()), !dbg !1302
  store i64 1, ptr %count.dbg.spill1, align 8, !dbg !1312
  call void @llvm.dbg.declare(metadata ptr %count.dbg.spill1, metadata !1319, metadata !DIExpression()), !dbg !1312
  store i64 1, ptr %self.dbg.spill, align 8, !dbg !1321
  call void @llvm.dbg.declare(metadata ptr %self.dbg.spill, metadata !1331, metadata !DIExpression()), !dbg !1321
  store i64 0, ptr %self.dbg.spill2, align 8, !dbg !1333
  call void @llvm.dbg.declare(metadata ptr %self.dbg.spill2, metadata !1340, metadata !DIExpression()), !dbg !1333
  store i64 1, ptr %rhs.dbg.spill, align 8, !dbg !1333
  call void @llvm.dbg.declare(metadata ptr %rhs.dbg.spill, metadata !1341, metadata !DIExpression()), !dbg !1333
  store i64 -1, ptr %count.dbg.spill3, align 8, !dbg !1343
  call void @llvm.dbg.declare(metadata ptr %count.dbg.spill3, metadata !1350, metadata !DIExpression()), !dbg !1343
  call void @llvm.dbg.declare(metadata ptr %metadata.dbg.spill, metadata !1352, metadata !DIExpression()), !dbg !1359
  store ptr %ptr, ptr %ptr.dbg.spill, align 8, !dbg !1359
  call void @llvm.dbg.declare(metadata ptr %ptr.dbg.spill, metadata !1116, metadata !DIExpression()), !dbg !1369
  call void @llvm.dbg.declare(metadata ptr %ptr.dbg.spill, metadata !1370, metadata !DIExpression()), !dbg !1381
  call void @llvm.dbg.declare(metadata ptr %ptr.dbg.spill, metadata !1383, metadata !DIExpression()), !dbg !1398
  call void @llvm.dbg.declare(metadata ptr %ptr.dbg.spill, metadata !1377, metadata !DIExpression()), !dbg !1400
  call void @llvm.dbg.declare(metadata ptr %ptr.dbg.spill, metadata !1379, metadata !DIExpression()), !dbg !1402
  call void @llvm.dbg.declare(metadata ptr %make_custom.dbg.spill, metadata !1117, metadata !DIExpression()), !dbg !1404
  call void @llvm.dbg.declare(metadata ptr %bits, metadata !1118, metadata !DIExpression()), !dbg !1405
  call void @llvm.dbg.declare(metadata ptr %self, metadata !1205, metadata !DIExpression()), !dbg !1406
  call void @llvm.dbg.declare(metadata ptr %self4, metadata !1407, metadata !DIExpression()), !dbg !1415
  store i8 1, ptr %_26, align 1, !dbg !1417
  store ptr %ptr, ptr %self.dbg.spill5, align 8, !dbg !1418
  call void @llvm.dbg.declare(metadata ptr %self.dbg.spill5, metadata !1419, metadata !DIExpression()), !dbg !1425
  call void @llvm.dbg.declare(metadata ptr %self.dbg.spill5, metadata !1427, metadata !DIExpression()), !dbg !1434
  %2 = ptrtoint ptr %ptr to i64, !dbg !1436
  store i64 %2, ptr %bits, align 8, !dbg !1436
  %_6 = load i64, ptr %bits, align 8, !dbg !1437, !noundef !23
  %_5 = and i64 %_6, 3, !dbg !1437
  switch i64 %_5, label %bb1 [
    i64 2, label %bb2
    i64 3, label %bb3
    i64 0, label %bb5
    i64 1, label %bb6
  ], !dbg !1438

bb1:                                              ; preds = %start
; invoke core::panicking::panic
  invoke void @_ZN4core9panicking5panic17h195fc2a96298d4c3E(ptr align 1 @alloc_a500d906b91607583596fa15e63c2ada, i64 40, ptr align 8 @alloc_ebdcf451b05d79292c8bb27e8fd089cf) #18
          to label %unreachable unwind label %cleanup, !dbg !1439

bb2:                                              ; preds = %start
  %_10 = load i64, ptr %bits, align 8, !dbg !1440, !noundef !23
  %_8 = ashr i64 %_10, 32, !dbg !1441
  %code = trunc i64 %_8 to i32, !dbg !1441
  store i32 %code, ptr %code.dbg.spill, align 4, !dbg !1441
  call void @llvm.dbg.declare(metadata ptr %code.dbg.spill, metadata !1120, metadata !DIExpression()), !dbg !1442
  %3 = getelementptr inbounds %"std::io::error::ErrorData<alloc::boxed::Box<std::io::error::Custom>>::Os", ptr %_0, i32 0, i32 1, !dbg !1443
  store i32 %code, ptr %3, align 4, !dbg !1443
  store i8 0, ptr %_0, align 8, !dbg !1443
  br label %bb8, !dbg !1444

bb3:                                              ; preds = %start
  %_13 = load i64, ptr %bits, align 8, !dbg !1445, !noundef !23
  %_12 = lshr i64 %_13, 32, !dbg !1446
  %kind_bits = trunc i64 %_12 to i32, !dbg !1446
  store i32 %kind_bits, ptr %kind_bits.dbg.spill, align 4, !dbg !1446
  call void @llvm.dbg.declare(metadata ptr %kind_bits.dbg.spill, metadata !1122, metadata !DIExpression()), !dbg !1447
; invoke std::io::error::repr_bitpacked::kind_from_prim
  %4 = invoke i8 @_ZN3std2io5error14repr_bitpacked14kind_from_prim17h1d06f59231e3119aE(i32 %kind_bits)
          to label %bb4 unwind label %cleanup, !dbg !1448, !range !1449

bb5:                                              ; preds = %start
  store ptr %ptr, ptr %ptr.dbg.spill6, align 8, !dbg !1450
  call void @llvm.dbg.declare(metadata ptr %ptr.dbg.spill6, metadata !1451, metadata !DIExpression()), !dbg !1458
  call void @llvm.dbg.declare(metadata ptr %ptr.dbg.spill6, metadata !1460, metadata !DIExpression()), !dbg !1467
  call void @llvm.dbg.declare(metadata ptr %ptr.dbg.spill6, metadata !1470, metadata !DIExpression()), !dbg !1476
  store ptr %ptr, ptr %self4, align 8, !dbg !1478
  %_42 = load ptr, ptr %self4, align 8, !dbg !1479, !noundef !23
  %5 = getelementptr inbounds %"std::io::error::ErrorData<alloc::boxed::Box<std::io::error::Custom>>::SimpleMessage", ptr %_0, i32 0, i32 1, !dbg !1480
  store ptr %_42, ptr %5, align 8, !dbg !1480
  store i8 2, ptr %_0, align 8, !dbg !1480
  br label %bb8, !dbg !1481

bb6:                                              ; preds = %start
  store ptr %ptr, ptr %self.dbg.spill7, align 8, !dbg !1482
  call void @llvm.dbg.declare(metadata ptr %self.dbg.spill7, metadata !1309, metadata !DIExpression()), !dbg !1483
  call void @llvm.dbg.declare(metadata ptr %self.dbg.spill7, metadata !1484, metadata !DIExpression()), !dbg !1492
  store ptr %ptr, ptr %self.dbg.spill8, align 8, !dbg !1494
  call void @llvm.dbg.declare(metadata ptr %self.dbg.spill8, metadata !1318, metadata !DIExpression()), !dbg !1495
  call void @llvm.dbg.declare(metadata ptr %self.dbg.spill8, metadata !1349, metadata !DIExpression()), !dbg !1496
  %6 = getelementptr i8, ptr %ptr, i64 -1, !dbg !1497
  store ptr %6, ptr %0, align 8, !dbg !1497
  %_47 = load ptr, ptr %0, align 8, !dbg !1497, !noundef !23
  store ptr %_47, ptr %self.dbg.spill9, align 8, !dbg !1497
  call void @llvm.dbg.declare(metadata ptr %self.dbg.spill9, metadata !1366, metadata !DIExpression()), !dbg !1498
  store ptr %ptr, ptr %meta.dbg.spill, align 8, !dbg !1499
  call void @llvm.dbg.declare(metadata ptr %meta.dbg.spill, metadata !1367, metadata !DIExpression()), !dbg !1500
  call void @llvm.dbg.declare(metadata ptr %meta.dbg.spill, metadata !1501, metadata !DIExpression()), !dbg !1507
  store ptr %_47, ptr %data_address.dbg.spill, align 8, !dbg !1509
  call void @llvm.dbg.declare(metadata ptr %data_address.dbg.spill, metadata !1358, metadata !DIExpression()), !dbg !1510
  store ptr %_47, ptr %_51, align 8, !dbg !1511
  call void @llvm.memcpy.p0.p0.i64(ptr align 8 %_50, ptr align 8 %_51, i64 8, i1 false), !dbg !1512
  %self10 = load ptr, ptr %_50, align 8, !dbg !1512, !noundef !23
  store ptr %self10, ptr %self.dbg.spill11, align 8, !dbg !1512
  call void @llvm.dbg.declare(metadata ptr %self.dbg.spill11, metadata !1513, metadata !DIExpression()), !dbg !1521
  store ptr %self10, ptr %custom.dbg.spill, align 8, !dbg !1523
  call void @llvm.dbg.declare(metadata ptr %custom.dbg.spill, metadata !1126, metadata !DIExpression()), !dbg !1524
  store i8 0, ptr %_26, align 1, !dbg !1525
  store ptr %self10, ptr %_24, align 8, !dbg !1525
  %7 = load ptr, ptr %_24, align 8, !dbg !1525, !noundef !23
; invoke <std::io::error::repr_bitpacked::Repr as core::ops::drop::Drop>::drop::{{closure}}
  %_22 = invoke align 8 ptr @"_ZN78_$LT$std..io..error..repr_bitpacked..Repr$u20$as$u20$core..ops..drop..Drop$GT$4drop28_$u7b$$u7b$closure$u7d$$u7d$17hac80846423eb288fE"(ptr %7)
          to label %bb7 unwind label %cleanup, !dbg !1525

bb8:                                              ; preds = %bb7, %bb5, %bb4, %bb2
  %8 = load i8, ptr %_26, align 1, !dbg !1526, !range !810, !noundef !23
  %9 = trunc i8 %8 to i1, !dbg !1526
  br i1 %9, label %bb11, label %bb9, !dbg !1526

bb13:                                             ; preds = %cleanup
  %10 = load i8, ptr %_26, align 1, !dbg !1526, !range !810, !noundef !23
  %11 = trunc i8 %10 to i1, !dbg !1526
  br i1 %11, label %bb12, label %bb10, !dbg !1526

cleanup:                                          ; preds = %bb1, %bb6, %bb3
  %12 = landingpad { ptr, i32 }
          cleanup
  %13 = extractvalue { ptr, i32 } %12, 0
  %14 = extractvalue { ptr, i32 } %12, 1
  %15 = getelementptr inbounds { ptr, i32 }, ptr %1, i32 0, i32 0
  store ptr %13, ptr %15, align 8
  %16 = getelementptr inbounds { ptr, i32 }, ptr %1, i32 0, i32 1
  store i32 %14, ptr %16, align 8
  br label %bb13

bb4:                                              ; preds = %bb3
  store i8 %4, ptr %self, align 1, !dbg !1448
  store ptr %bits, ptr %f.dbg.spill, align 8, !dbg !1527
  call void @llvm.dbg.declare(metadata ptr %f.dbg.spill, metadata !1206, metadata !DIExpression()), !dbg !1528
  %17 = load i8, ptr %self, align 1, !dbg !1529, !range !1449, !noundef !23
  %18 = icmp eq i8 %17, 41, !dbg !1529
  %_28 = select i1 %18, i64 0, i64 1, !dbg !1529
  %_53 = icmp eq i64 %_28, 1, !dbg !1530
  call void @llvm.assume(i1 %_53), !dbg !1530
  %kind = load i8, ptr %self, align 1, !dbg !1531, !range !1532, !noundef !23
  store i8 %kind, ptr %kind.dbg.spill, align 1, !dbg !1531
  call void @llvm.dbg.declare(metadata ptr %kind.dbg.spill, metadata !1124, metadata !DIExpression()), !dbg !1533
  call void @llvm.dbg.declare(metadata ptr %kind.dbg.spill, metadata !1207, metadata !DIExpression()), !dbg !1534
  %19 = getelementptr inbounds %"std::io::error::ErrorData<alloc::boxed::Box<std::io::error::Custom>>::Simple", ptr %_0, i32 0, i32 1, !dbg !1535
  store i8 %kind, ptr %19, align 1, !dbg !1535
  store i8 1, ptr %_0, align 8, !dbg !1535
  br label %bb8, !dbg !1536

bb7:                                              ; preds = %bb6
  %20 = getelementptr inbounds %"std::io::error::ErrorData<alloc::boxed::Box<std::io::error::Custom>>::Custom", ptr %_0, i32 0, i32 1, !dbg !1537
  store ptr %_22, ptr %20, align 8, !dbg !1537
  store i8 3, ptr %_0, align 8, !dbg !1537
  br label %bb8, !dbg !1538

bb9:                                              ; preds = %bb11, %bb8
  ret void, !dbg !1539

bb11:                                             ; preds = %bb8
  br label %bb9, !dbg !1526

unreachable:                                      ; preds = %bb1
  unreachable

bb10:                                             ; preds = %bb12, %bb13
  %21 = load ptr, ptr %1, align 8, !dbg !1540, !noundef !23
  %22 = getelementptr inbounds { ptr, i32 }, ptr %1, i32 0, i32 1, !dbg !1540
  %23 = load i32, ptr %22, align 8, !dbg !1540, !noundef !23
  %24 = insertvalue { ptr, i32 } poison, ptr %21, 0, !dbg !1540
  %25 = insertvalue { ptr, i32 } %24, i32 %23, 1, !dbg !1540
  resume { ptr, i32 } %25, !dbg !1540

bb12:                                             ; preds = %bb13
  br label %bb10, !dbg !1526
}

; std::io::error::repr_bitpacked::kind_from_prim
; Function Attrs: inlinehint nonlazybind uwtable
define internal i8 @_ZN3std2io5error14repr_bitpacked14kind_from_prim17h1d06f59231e3119aE(i32 %0) unnamed_addr #0 !dbg !1541 {
start:
  %v.dbg.spill121 = alloca i32, align 4
  %v.dbg.spill119 = alloca ptr, align 8
  %v.dbg.spill118 = alloca i32, align 4
  %v.dbg.spill116 = alloca ptr, align 8
  %v.dbg.spill115 = alloca i32, align 4
  %v.dbg.spill113 = alloca ptr, align 8
  %v.dbg.spill112 = alloca i32, align 4
  %v.dbg.spill110 = alloca ptr, align 8
  %v.dbg.spill109 = alloca i32, align 4
  %v.dbg.spill107 = alloca ptr, align 8
  %v.dbg.spill106 = alloca i32, align 4
  %v.dbg.spill104 = alloca ptr, align 8
  %v.dbg.spill103 = alloca i32, align 4
  %v.dbg.spill101 = alloca ptr, align 8
  %v.dbg.spill100 = alloca i32, align 4
  %v.dbg.spill98 = alloca ptr, align 8
  %v.dbg.spill97 = alloca i32, align 4
  %v.dbg.spill95 = alloca ptr, align 8
  %v.dbg.spill94 = alloca i32, align 4
  %v.dbg.spill92 = alloca ptr, align 8
  %v.dbg.spill91 = alloca i32, align 4
  %v.dbg.spill89 = alloca ptr, align 8
  %v.dbg.spill88 = alloca i32, align 4
  %v.dbg.spill86 = alloca ptr, align 8
  %v.dbg.spill85 = alloca i32, align 4
  %v.dbg.spill83 = alloca ptr, align 8
  %v.dbg.spill82 = alloca i32, align 4
  %v.dbg.spill80 = alloca ptr, align 8
  %v.dbg.spill79 = alloca i32, align 4
  %v.dbg.spill77 = alloca ptr, align 8
  %v.dbg.spill76 = alloca i32, align 4
  %v.dbg.spill74 = alloca ptr, align 8
  %v.dbg.spill73 = alloca i32, align 4
  %v.dbg.spill71 = alloca ptr, align 8
  %v.dbg.spill70 = alloca i32, align 4
  %v.dbg.spill68 = alloca ptr, align 8
  %v.dbg.spill67 = alloca i32, align 4
  %v.dbg.spill65 = alloca ptr, align 8
  %v.dbg.spill64 = alloca i32, align 4
  %v.dbg.spill62 = alloca ptr, align 8
  %v.dbg.spill61 = alloca i32, align 4
  %v.dbg.spill59 = alloca ptr, align 8
  %v.dbg.spill58 = alloca i32, align 4
  %v.dbg.spill56 = alloca ptr, align 8
  %v.dbg.spill55 = alloca i32, align 4
  %v.dbg.spill53 = alloca ptr, align 8
  %v.dbg.spill52 = alloca i32, align 4
  %v.dbg.spill50 = alloca ptr, align 8
  %v.dbg.spill49 = alloca i32, align 4
  %v.dbg.spill47 = alloca ptr, align 8
  %v.dbg.spill46 = alloca i32, align 4
  %v.dbg.spill44 = alloca ptr, align 8
  %v.dbg.spill43 = alloca i32, align 4
  %v.dbg.spill41 = alloca ptr, align 8
  %v.dbg.spill40 = alloca i32, align 4
  %v.dbg.spill38 = alloca ptr, align 8
  %v.dbg.spill37 = alloca i32, align 4
  %v.dbg.spill35 = alloca ptr, align 8
  %v.dbg.spill34 = alloca i32, align 4
  %v.dbg.spill32 = alloca ptr, align 8
  %v.dbg.spill31 = alloca i32, align 4
  %v.dbg.spill29 = alloca ptr, align 8
  %v.dbg.spill28 = alloca i32, align 4
  %v.dbg.spill26 = alloca ptr, align 8
  %v.dbg.spill25 = alloca i32, align 4
  %v.dbg.spill23 = alloca ptr, align 8
  %v.dbg.spill22 = alloca i32, align 4
  %v.dbg.spill20 = alloca ptr, align 8
  %v.dbg.spill19 = alloca i32, align 4
  %v.dbg.spill17 = alloca ptr, align 8
  %v.dbg.spill16 = alloca i32, align 4
  %v.dbg.spill14 = alloca ptr, align 8
  %v.dbg.spill13 = alloca i32, align 4
  %v.dbg.spill11 = alloca ptr, align 8
  %v.dbg.spill10 = alloca i32, align 4
  %v.dbg.spill8 = alloca ptr, align 8
  %v.dbg.spill7 = alloca i32, align 4
  %v.dbg.spill5 = alloca ptr, align 8
  %v.dbg.spill4 = alloca i32, align 4
  %v.dbg.spill2 = alloca ptr, align 8
  %v.dbg.spill1 = alloca i32, align 4
  %v.dbg.spill = alloca ptr, align 8
  %_0 = alloca i8, align 1
  %ek = alloca i32, align 4
  store i32 %0, ptr %ek, align 4
  call void @llvm.dbg.declare(metadata ptr %ek, metadata !1545, metadata !DIExpression()), !dbg !1670
  store ptr %ek, ptr %v.dbg.spill, align 8, !dbg !1671
  call void @llvm.dbg.declare(metadata ptr %v.dbg.spill, metadata !1548, metadata !DIExpression()), !dbg !1672
  %_4 = load i32, ptr %ek, align 4, !dbg !1671, !noundef !23
  %1 = icmp eq i32 %_4, 0, !dbg !1671
  br i1 %1, label %bb1, label %bb2, !dbg !1671

bb1:                                              ; preds = %start
  %v = load i32, ptr %ek, align 4, !dbg !1671, !noundef !23
  store i32 %v, ptr %v.dbg.spill1, align 4, !dbg !1671
  call void @llvm.dbg.declare(metadata ptr %v.dbg.spill1, metadata !1546, metadata !DIExpression()), !dbg !1672
  store i8 0, ptr %_0, align 1, !dbg !1672
  br label %bb83, !dbg !1671

bb2:                                              ; preds = %start
  store ptr %ek, ptr %v.dbg.spill2, align 8, !dbg !1671
  call void @llvm.dbg.declare(metadata ptr %v.dbg.spill2, metadata !1552, metadata !DIExpression()), !dbg !1673
  %_7 = load i32, ptr %ek, align 4, !dbg !1671, !noundef !23
  %2 = icmp eq i32 %_7, 1, !dbg !1671
  br i1 %2, label %bb3, label %bb4, !dbg !1671

bb83:                                             ; preds = %bb82, %bb81, %bb79, %bb77, %bb75, %bb73, %bb71, %bb69, %bb67, %bb65, %bb63, %bb61, %bb59, %bb57, %bb55, %bb53, %bb51, %bb49, %bb47, %bb45, %bb43, %bb41, %bb39, %bb37, %bb35, %bb33, %bb31, %bb29, %bb27, %bb25, %bb23, %bb21, %bb19, %bb17, %bb15, %bb13, %bb11, %bb9, %bb7, %bb5, %bb3, %bb1
  %3 = load i8, ptr %_0, align 1, !dbg !1674, !range !1449, !noundef !23
  ret i8 %3, !dbg !1674

bb3:                                              ; preds = %bb2
  %v3 = load i32, ptr %ek, align 4, !dbg !1671, !noundef !23
  store i32 %v3, ptr %v.dbg.spill4, align 4, !dbg !1671
  call void @llvm.dbg.declare(metadata ptr %v.dbg.spill4, metadata !1550, metadata !DIExpression()), !dbg !1673
  store i8 1, ptr %_0, align 1, !dbg !1673
  br label %bb83, !dbg !1671

bb4:                                              ; preds = %bb2
  store ptr %ek, ptr %v.dbg.spill5, align 8, !dbg !1671
  call void @llvm.dbg.declare(metadata ptr %v.dbg.spill5, metadata !1555, metadata !DIExpression()), !dbg !1675
  %_10 = load i32, ptr %ek, align 4, !dbg !1671, !noundef !23
  %4 = icmp eq i32 %_10, 2, !dbg !1671
  br i1 %4, label %bb5, label %bb6, !dbg !1671

bb5:                                              ; preds = %bb4
  %v6 = load i32, ptr %ek, align 4, !dbg !1671, !noundef !23
  store i32 %v6, ptr %v.dbg.spill7, align 4, !dbg !1671
  call void @llvm.dbg.declare(metadata ptr %v.dbg.spill7, metadata !1553, metadata !DIExpression()), !dbg !1675
  store i8 2, ptr %_0, align 1, !dbg !1675
  br label %bb83, !dbg !1671

bb6:                                              ; preds = %bb4
  store ptr %ek, ptr %v.dbg.spill8, align 8, !dbg !1671
  call void @llvm.dbg.declare(metadata ptr %v.dbg.spill8, metadata !1558, metadata !DIExpression()), !dbg !1676
  %_13 = load i32, ptr %ek, align 4, !dbg !1671, !noundef !23
  %5 = icmp eq i32 %_13, 3, !dbg !1671
  br i1 %5, label %bb7, label %bb8, !dbg !1671

bb7:                                              ; preds = %bb6
  %v9 = load i32, ptr %ek, align 4, !dbg !1671, !noundef !23
  store i32 %v9, ptr %v.dbg.spill10, align 4, !dbg !1671
  call void @llvm.dbg.declare(metadata ptr %v.dbg.spill10, metadata !1556, metadata !DIExpression()), !dbg !1676
  store i8 3, ptr %_0, align 1, !dbg !1676
  br label %bb83, !dbg !1671

bb8:                                              ; preds = %bb6
  store ptr %ek, ptr %v.dbg.spill11, align 8, !dbg !1671
  call void @llvm.dbg.declare(metadata ptr %v.dbg.spill11, metadata !1561, metadata !DIExpression()), !dbg !1677
  %_16 = load i32, ptr %ek, align 4, !dbg !1671, !noundef !23
  %6 = icmp eq i32 %_16, 4, !dbg !1671
  br i1 %6, label %bb9, label %bb10, !dbg !1671

bb9:                                              ; preds = %bb8
  %v12 = load i32, ptr %ek, align 4, !dbg !1671, !noundef !23
  store i32 %v12, ptr %v.dbg.spill13, align 4, !dbg !1671
  call void @llvm.dbg.declare(metadata ptr %v.dbg.spill13, metadata !1559, metadata !DIExpression()), !dbg !1677
  store i8 4, ptr %_0, align 1, !dbg !1677
  br label %bb83, !dbg !1671

bb10:                                             ; preds = %bb8
  store ptr %ek, ptr %v.dbg.spill14, align 8, !dbg !1671
  call void @llvm.dbg.declare(metadata ptr %v.dbg.spill14, metadata !1564, metadata !DIExpression()), !dbg !1678
  %_19 = load i32, ptr %ek, align 4, !dbg !1671, !noundef !23
  %7 = icmp eq i32 %_19, 5, !dbg !1671
  br i1 %7, label %bb11, label %bb12, !dbg !1671

bb11:                                             ; preds = %bb10
  %v15 = load i32, ptr %ek, align 4, !dbg !1671, !noundef !23
  store i32 %v15, ptr %v.dbg.spill16, align 4, !dbg !1671
  call void @llvm.dbg.declare(metadata ptr %v.dbg.spill16, metadata !1562, metadata !DIExpression()), !dbg !1678
  store i8 5, ptr %_0, align 1, !dbg !1678
  br label %bb83, !dbg !1671

bb12:                                             ; preds = %bb10
  store ptr %ek, ptr %v.dbg.spill17, align 8, !dbg !1671
  call void @llvm.dbg.declare(metadata ptr %v.dbg.spill17, metadata !1567, metadata !DIExpression()), !dbg !1679
  %_22 = load i32, ptr %ek, align 4, !dbg !1671, !noundef !23
  %8 = icmp eq i32 %_22, 6, !dbg !1671
  br i1 %8, label %bb13, label %bb14, !dbg !1671

bb13:                                             ; preds = %bb12
  %v18 = load i32, ptr %ek, align 4, !dbg !1671, !noundef !23
  store i32 %v18, ptr %v.dbg.spill19, align 4, !dbg !1671
  call void @llvm.dbg.declare(metadata ptr %v.dbg.spill19, metadata !1565, metadata !DIExpression()), !dbg !1679
  store i8 6, ptr %_0, align 1, !dbg !1679
  br label %bb83, !dbg !1671

bb14:                                             ; preds = %bb12
  store ptr %ek, ptr %v.dbg.spill20, align 8, !dbg !1671
  call void @llvm.dbg.declare(metadata ptr %v.dbg.spill20, metadata !1570, metadata !DIExpression()), !dbg !1680
  %_25 = load i32, ptr %ek, align 4, !dbg !1671, !noundef !23
  %9 = icmp eq i32 %_25, 7, !dbg !1671
  br i1 %9, label %bb15, label %bb16, !dbg !1671

bb15:                                             ; preds = %bb14
  %v21 = load i32, ptr %ek, align 4, !dbg !1671, !noundef !23
  store i32 %v21, ptr %v.dbg.spill22, align 4, !dbg !1671
  call void @llvm.dbg.declare(metadata ptr %v.dbg.spill22, metadata !1568, metadata !DIExpression()), !dbg !1680
  store i8 7, ptr %_0, align 1, !dbg !1680
  br label %bb83, !dbg !1671

bb16:                                             ; preds = %bb14
  store ptr %ek, ptr %v.dbg.spill23, align 8, !dbg !1671
  call void @llvm.dbg.declare(metadata ptr %v.dbg.spill23, metadata !1573, metadata !DIExpression()), !dbg !1681
  %_28 = load i32, ptr %ek, align 4, !dbg !1671, !noundef !23
  %10 = icmp eq i32 %_28, 8, !dbg !1671
  br i1 %10, label %bb17, label %bb18, !dbg !1671

bb17:                                             ; preds = %bb16
  %v24 = load i32, ptr %ek, align 4, !dbg !1671, !noundef !23
  store i32 %v24, ptr %v.dbg.spill25, align 4, !dbg !1671
  call void @llvm.dbg.declare(metadata ptr %v.dbg.spill25, metadata !1571, metadata !DIExpression()), !dbg !1681
  store i8 8, ptr %_0, align 1, !dbg !1681
  br label %bb83, !dbg !1671

bb18:                                             ; preds = %bb16
  store ptr %ek, ptr %v.dbg.spill26, align 8, !dbg !1671
  call void @llvm.dbg.declare(metadata ptr %v.dbg.spill26, metadata !1576, metadata !DIExpression()), !dbg !1682
  %_31 = load i32, ptr %ek, align 4, !dbg !1671, !noundef !23
  %11 = icmp eq i32 %_31, 9, !dbg !1671
  br i1 %11, label %bb19, label %bb20, !dbg !1671

bb19:                                             ; preds = %bb18
  %v27 = load i32, ptr %ek, align 4, !dbg !1671, !noundef !23
  store i32 %v27, ptr %v.dbg.spill28, align 4, !dbg !1671
  call void @llvm.dbg.declare(metadata ptr %v.dbg.spill28, metadata !1574, metadata !DIExpression()), !dbg !1682
  store i8 9, ptr %_0, align 1, !dbg !1682
  br label %bb83, !dbg !1671

bb20:                                             ; preds = %bb18
  store ptr %ek, ptr %v.dbg.spill29, align 8, !dbg !1671
  call void @llvm.dbg.declare(metadata ptr %v.dbg.spill29, metadata !1579, metadata !DIExpression()), !dbg !1683
  %_34 = load i32, ptr %ek, align 4, !dbg !1671, !noundef !23
  %12 = icmp eq i32 %_34, 10, !dbg !1671
  br i1 %12, label %bb21, label %bb22, !dbg !1671

bb21:                                             ; preds = %bb20
  %v30 = load i32, ptr %ek, align 4, !dbg !1671, !noundef !23
  store i32 %v30, ptr %v.dbg.spill31, align 4, !dbg !1671
  call void @llvm.dbg.declare(metadata ptr %v.dbg.spill31, metadata !1577, metadata !DIExpression()), !dbg !1683
  store i8 10, ptr %_0, align 1, !dbg !1683
  br label %bb83, !dbg !1671

bb22:                                             ; preds = %bb20
  store ptr %ek, ptr %v.dbg.spill32, align 8, !dbg !1671
  call void @llvm.dbg.declare(metadata ptr %v.dbg.spill32, metadata !1582, metadata !DIExpression()), !dbg !1684
  %_37 = load i32, ptr %ek, align 4, !dbg !1671, !noundef !23
  %13 = icmp eq i32 %_37, 11, !dbg !1671
  br i1 %13, label %bb23, label %bb24, !dbg !1671

bb23:                                             ; preds = %bb22
  %v33 = load i32, ptr %ek, align 4, !dbg !1671, !noundef !23
  store i32 %v33, ptr %v.dbg.spill34, align 4, !dbg !1671
  call void @llvm.dbg.declare(metadata ptr %v.dbg.spill34, metadata !1580, metadata !DIExpression()), !dbg !1684
  store i8 11, ptr %_0, align 1, !dbg !1684
  br label %bb83, !dbg !1671

bb24:                                             ; preds = %bb22
  store ptr %ek, ptr %v.dbg.spill35, align 8, !dbg !1671
  call void @llvm.dbg.declare(metadata ptr %v.dbg.spill35, metadata !1585, metadata !DIExpression()), !dbg !1685
  %_40 = load i32, ptr %ek, align 4, !dbg !1671, !noundef !23
  %14 = icmp eq i32 %_40, 12, !dbg !1671
  br i1 %14, label %bb25, label %bb26, !dbg !1671

bb25:                                             ; preds = %bb24
  %v36 = load i32, ptr %ek, align 4, !dbg !1671, !noundef !23
  store i32 %v36, ptr %v.dbg.spill37, align 4, !dbg !1671
  call void @llvm.dbg.declare(metadata ptr %v.dbg.spill37, metadata !1583, metadata !DIExpression()), !dbg !1685
  store i8 12, ptr %_0, align 1, !dbg !1685
  br label %bb83, !dbg !1671

bb26:                                             ; preds = %bb24
  store ptr %ek, ptr %v.dbg.spill38, align 8, !dbg !1671
  call void @llvm.dbg.declare(metadata ptr %v.dbg.spill38, metadata !1588, metadata !DIExpression()), !dbg !1686
  %_43 = load i32, ptr %ek, align 4, !dbg !1671, !noundef !23
  %15 = icmp eq i32 %_43, 13, !dbg !1671
  br i1 %15, label %bb27, label %bb28, !dbg !1671

bb27:                                             ; preds = %bb26
  %v39 = load i32, ptr %ek, align 4, !dbg !1671, !noundef !23
  store i32 %v39, ptr %v.dbg.spill40, align 4, !dbg !1671
  call void @llvm.dbg.declare(metadata ptr %v.dbg.spill40, metadata !1586, metadata !DIExpression()), !dbg !1686
  store i8 13, ptr %_0, align 1, !dbg !1686
  br label %bb83, !dbg !1671

bb28:                                             ; preds = %bb26
  store ptr %ek, ptr %v.dbg.spill41, align 8, !dbg !1671
  call void @llvm.dbg.declare(metadata ptr %v.dbg.spill41, metadata !1591, metadata !DIExpression()), !dbg !1687
  %_46 = load i32, ptr %ek, align 4, !dbg !1671, !noundef !23
  %16 = icmp eq i32 %_46, 14, !dbg !1671
  br i1 %16, label %bb29, label %bb30, !dbg !1671

bb29:                                             ; preds = %bb28
  %v42 = load i32, ptr %ek, align 4, !dbg !1671, !noundef !23
  store i32 %v42, ptr %v.dbg.spill43, align 4, !dbg !1671
  call void @llvm.dbg.declare(metadata ptr %v.dbg.spill43, metadata !1589, metadata !DIExpression()), !dbg !1687
  store i8 14, ptr %_0, align 1, !dbg !1687
  br label %bb83, !dbg !1671

bb30:                                             ; preds = %bb28
  store ptr %ek, ptr %v.dbg.spill44, align 8, !dbg !1671
  call void @llvm.dbg.declare(metadata ptr %v.dbg.spill44, metadata !1594, metadata !DIExpression()), !dbg !1688
  %_49 = load i32, ptr %ek, align 4, !dbg !1671, !noundef !23
  %17 = icmp eq i32 %_49, 15, !dbg !1671
  br i1 %17, label %bb31, label %bb32, !dbg !1671

bb31:                                             ; preds = %bb30
  %v45 = load i32, ptr %ek, align 4, !dbg !1671, !noundef !23
  store i32 %v45, ptr %v.dbg.spill46, align 4, !dbg !1671
  call void @llvm.dbg.declare(metadata ptr %v.dbg.spill46, metadata !1592, metadata !DIExpression()), !dbg !1688
  store i8 15, ptr %_0, align 1, !dbg !1688
  br label %bb83, !dbg !1671

bb32:                                             ; preds = %bb30
  store ptr %ek, ptr %v.dbg.spill47, align 8, !dbg !1671
  call void @llvm.dbg.declare(metadata ptr %v.dbg.spill47, metadata !1597, metadata !DIExpression()), !dbg !1689
  %_52 = load i32, ptr %ek, align 4, !dbg !1671, !noundef !23
  %18 = icmp eq i32 %_52, 16, !dbg !1671
  br i1 %18, label %bb33, label %bb34, !dbg !1671

bb33:                                             ; preds = %bb32
  %v48 = load i32, ptr %ek, align 4, !dbg !1671, !noundef !23
  store i32 %v48, ptr %v.dbg.spill49, align 4, !dbg !1671
  call void @llvm.dbg.declare(metadata ptr %v.dbg.spill49, metadata !1595, metadata !DIExpression()), !dbg !1689
  store i8 16, ptr %_0, align 1, !dbg !1689
  br label %bb83, !dbg !1671

bb34:                                             ; preds = %bb32
  store ptr %ek, ptr %v.dbg.spill50, align 8, !dbg !1671
  call void @llvm.dbg.declare(metadata ptr %v.dbg.spill50, metadata !1600, metadata !DIExpression()), !dbg !1690
  %_55 = load i32, ptr %ek, align 4, !dbg !1671, !noundef !23
  %19 = icmp eq i32 %_55, 17, !dbg !1671
  br i1 %19, label %bb35, label %bb36, !dbg !1671

bb35:                                             ; preds = %bb34
  %v51 = load i32, ptr %ek, align 4, !dbg !1671, !noundef !23
  store i32 %v51, ptr %v.dbg.spill52, align 4, !dbg !1671
  call void @llvm.dbg.declare(metadata ptr %v.dbg.spill52, metadata !1598, metadata !DIExpression()), !dbg !1690
  store i8 17, ptr %_0, align 1, !dbg !1690
  br label %bb83, !dbg !1671

bb36:                                             ; preds = %bb34
  store ptr %ek, ptr %v.dbg.spill53, align 8, !dbg !1671
  call void @llvm.dbg.declare(metadata ptr %v.dbg.spill53, metadata !1603, metadata !DIExpression()), !dbg !1691
  %_58 = load i32, ptr %ek, align 4, !dbg !1671, !noundef !23
  %20 = icmp eq i32 %_58, 18, !dbg !1671
  br i1 %20, label %bb37, label %bb38, !dbg !1671

bb37:                                             ; preds = %bb36
  %v54 = load i32, ptr %ek, align 4, !dbg !1671, !noundef !23
  store i32 %v54, ptr %v.dbg.spill55, align 4, !dbg !1671
  call void @llvm.dbg.declare(metadata ptr %v.dbg.spill55, metadata !1601, metadata !DIExpression()), !dbg !1691
  store i8 18, ptr %_0, align 1, !dbg !1691
  br label %bb83, !dbg !1671

bb38:                                             ; preds = %bb36
  store ptr %ek, ptr %v.dbg.spill56, align 8, !dbg !1671
  call void @llvm.dbg.declare(metadata ptr %v.dbg.spill56, metadata !1606, metadata !DIExpression()), !dbg !1692
  %_61 = load i32, ptr %ek, align 4, !dbg !1671, !noundef !23
  %21 = icmp eq i32 %_61, 19, !dbg !1671
  br i1 %21, label %bb39, label %bb40, !dbg !1671

bb39:                                             ; preds = %bb38
  %v57 = load i32, ptr %ek, align 4, !dbg !1671, !noundef !23
  store i32 %v57, ptr %v.dbg.spill58, align 4, !dbg !1671
  call void @llvm.dbg.declare(metadata ptr %v.dbg.spill58, metadata !1604, metadata !DIExpression()), !dbg !1692
  store i8 19, ptr %_0, align 1, !dbg !1692
  br label %bb83, !dbg !1671

bb40:                                             ; preds = %bb38
  store ptr %ek, ptr %v.dbg.spill59, align 8, !dbg !1671
  call void @llvm.dbg.declare(metadata ptr %v.dbg.spill59, metadata !1609, metadata !DIExpression()), !dbg !1693
  %_64 = load i32, ptr %ek, align 4, !dbg !1671, !noundef !23
  %22 = icmp eq i32 %_64, 20, !dbg !1671
  br i1 %22, label %bb41, label %bb42, !dbg !1671

bb41:                                             ; preds = %bb40
  %v60 = load i32, ptr %ek, align 4, !dbg !1671, !noundef !23
  store i32 %v60, ptr %v.dbg.spill61, align 4, !dbg !1671
  call void @llvm.dbg.declare(metadata ptr %v.dbg.spill61, metadata !1607, metadata !DIExpression()), !dbg !1693
  store i8 20, ptr %_0, align 1, !dbg !1693
  br label %bb83, !dbg !1671

bb42:                                             ; preds = %bb40
  store ptr %ek, ptr %v.dbg.spill62, align 8, !dbg !1671
  call void @llvm.dbg.declare(metadata ptr %v.dbg.spill62, metadata !1612, metadata !DIExpression()), !dbg !1694
  %_67 = load i32, ptr %ek, align 4, !dbg !1671, !noundef !23
  %23 = icmp eq i32 %_67, 21, !dbg !1671
  br i1 %23, label %bb43, label %bb44, !dbg !1671

bb43:                                             ; preds = %bb42
  %v63 = load i32, ptr %ek, align 4, !dbg !1671, !noundef !23
  store i32 %v63, ptr %v.dbg.spill64, align 4, !dbg !1671
  call void @llvm.dbg.declare(metadata ptr %v.dbg.spill64, metadata !1610, metadata !DIExpression()), !dbg !1694
  store i8 21, ptr %_0, align 1, !dbg !1694
  br label %bb83, !dbg !1671

bb44:                                             ; preds = %bb42
  store ptr %ek, ptr %v.dbg.spill65, align 8, !dbg !1671
  call void @llvm.dbg.declare(metadata ptr %v.dbg.spill65, metadata !1615, metadata !DIExpression()), !dbg !1695
  %_70 = load i32, ptr %ek, align 4, !dbg !1671, !noundef !23
  %24 = icmp eq i32 %_70, 22, !dbg !1671
  br i1 %24, label %bb45, label %bb46, !dbg !1671

bb45:                                             ; preds = %bb44
  %v66 = load i32, ptr %ek, align 4, !dbg !1671, !noundef !23
  store i32 %v66, ptr %v.dbg.spill67, align 4, !dbg !1671
  call void @llvm.dbg.declare(metadata ptr %v.dbg.spill67, metadata !1613, metadata !DIExpression()), !dbg !1695
  store i8 22, ptr %_0, align 1, !dbg !1695
  br label %bb83, !dbg !1671

bb46:                                             ; preds = %bb44
  store ptr %ek, ptr %v.dbg.spill68, align 8, !dbg !1671
  call void @llvm.dbg.declare(metadata ptr %v.dbg.spill68, metadata !1618, metadata !DIExpression()), !dbg !1696
  %_73 = load i32, ptr %ek, align 4, !dbg !1671, !noundef !23
  %25 = icmp eq i32 %_73, 23, !dbg !1671
  br i1 %25, label %bb47, label %bb48, !dbg !1671

bb47:                                             ; preds = %bb46
  %v69 = load i32, ptr %ek, align 4, !dbg !1671, !noundef !23
  store i32 %v69, ptr %v.dbg.spill70, align 4, !dbg !1671
  call void @llvm.dbg.declare(metadata ptr %v.dbg.spill70, metadata !1616, metadata !DIExpression()), !dbg !1696
  store i8 23, ptr %_0, align 1, !dbg !1696
  br label %bb83, !dbg !1671

bb48:                                             ; preds = %bb46
  store ptr %ek, ptr %v.dbg.spill71, align 8, !dbg !1671
  call void @llvm.dbg.declare(metadata ptr %v.dbg.spill71, metadata !1621, metadata !DIExpression()), !dbg !1697
  %_76 = load i32, ptr %ek, align 4, !dbg !1671, !noundef !23
  %26 = icmp eq i32 %_76, 24, !dbg !1671
  br i1 %26, label %bb49, label %bb50, !dbg !1671

bb49:                                             ; preds = %bb48
  %v72 = load i32, ptr %ek, align 4, !dbg !1671, !noundef !23
  store i32 %v72, ptr %v.dbg.spill73, align 4, !dbg !1671
  call void @llvm.dbg.declare(metadata ptr %v.dbg.spill73, metadata !1619, metadata !DIExpression()), !dbg !1697
  store i8 24, ptr %_0, align 1, !dbg !1697
  br label %bb83, !dbg !1671

bb50:                                             ; preds = %bb48
  store ptr %ek, ptr %v.dbg.spill74, align 8, !dbg !1671
  call void @llvm.dbg.declare(metadata ptr %v.dbg.spill74, metadata !1624, metadata !DIExpression()), !dbg !1698
  %_79 = load i32, ptr %ek, align 4, !dbg !1671, !noundef !23
  %27 = icmp eq i32 %_79, 25, !dbg !1671
  br i1 %27, label %bb51, label %bb52, !dbg !1671

bb51:                                             ; preds = %bb50
  %v75 = load i32, ptr %ek, align 4, !dbg !1671, !noundef !23
  store i32 %v75, ptr %v.dbg.spill76, align 4, !dbg !1671
  call void @llvm.dbg.declare(metadata ptr %v.dbg.spill76, metadata !1622, metadata !DIExpression()), !dbg !1698
  store i8 25, ptr %_0, align 1, !dbg !1698
  br label %bb83, !dbg !1671

bb52:                                             ; preds = %bb50
  store ptr %ek, ptr %v.dbg.spill77, align 8, !dbg !1671
  call void @llvm.dbg.declare(metadata ptr %v.dbg.spill77, metadata !1627, metadata !DIExpression()), !dbg !1699
  %_82 = load i32, ptr %ek, align 4, !dbg !1671, !noundef !23
  %28 = icmp eq i32 %_82, 26, !dbg !1671
  br i1 %28, label %bb53, label %bb54, !dbg !1671

bb53:                                             ; preds = %bb52
  %v78 = load i32, ptr %ek, align 4, !dbg !1671, !noundef !23
  store i32 %v78, ptr %v.dbg.spill79, align 4, !dbg !1671
  call void @llvm.dbg.declare(metadata ptr %v.dbg.spill79, metadata !1625, metadata !DIExpression()), !dbg !1699
  store i8 26, ptr %_0, align 1, !dbg !1699
  br label %bb83, !dbg !1671

bb54:                                             ; preds = %bb52
  store ptr %ek, ptr %v.dbg.spill80, align 8, !dbg !1671
  call void @llvm.dbg.declare(metadata ptr %v.dbg.spill80, metadata !1630, metadata !DIExpression()), !dbg !1700
  %_85 = load i32, ptr %ek, align 4, !dbg !1671, !noundef !23
  %29 = icmp eq i32 %_85, 27, !dbg !1671
  br i1 %29, label %bb55, label %bb56, !dbg !1671

bb55:                                             ; preds = %bb54
  %v81 = load i32, ptr %ek, align 4, !dbg !1671, !noundef !23
  store i32 %v81, ptr %v.dbg.spill82, align 4, !dbg !1671
  call void @llvm.dbg.declare(metadata ptr %v.dbg.spill82, metadata !1628, metadata !DIExpression()), !dbg !1700
  store i8 27, ptr %_0, align 1, !dbg !1700
  br label %bb83, !dbg !1671

bb56:                                             ; preds = %bb54
  store ptr %ek, ptr %v.dbg.spill83, align 8, !dbg !1671
  call void @llvm.dbg.declare(metadata ptr %v.dbg.spill83, metadata !1633, metadata !DIExpression()), !dbg !1701
  %_88 = load i32, ptr %ek, align 4, !dbg !1671, !noundef !23
  %30 = icmp eq i32 %_88, 28, !dbg !1671
  br i1 %30, label %bb57, label %bb58, !dbg !1671

bb57:                                             ; preds = %bb56
  %v84 = load i32, ptr %ek, align 4, !dbg !1671, !noundef !23
  store i32 %v84, ptr %v.dbg.spill85, align 4, !dbg !1671
  call void @llvm.dbg.declare(metadata ptr %v.dbg.spill85, metadata !1631, metadata !DIExpression()), !dbg !1701
  store i8 28, ptr %_0, align 1, !dbg !1701
  br label %bb83, !dbg !1671

bb58:                                             ; preds = %bb56
  store ptr %ek, ptr %v.dbg.spill86, align 8, !dbg !1671
  call void @llvm.dbg.declare(metadata ptr %v.dbg.spill86, metadata !1636, metadata !DIExpression()), !dbg !1702
  %_91 = load i32, ptr %ek, align 4, !dbg !1671, !noundef !23
  %31 = icmp eq i32 %_91, 29, !dbg !1671
  br i1 %31, label %bb59, label %bb60, !dbg !1671

bb59:                                             ; preds = %bb58
  %v87 = load i32, ptr %ek, align 4, !dbg !1671, !noundef !23
  store i32 %v87, ptr %v.dbg.spill88, align 4, !dbg !1671
  call void @llvm.dbg.declare(metadata ptr %v.dbg.spill88, metadata !1634, metadata !DIExpression()), !dbg !1702
  store i8 29, ptr %_0, align 1, !dbg !1702
  br label %bb83, !dbg !1671

bb60:                                             ; preds = %bb58
  store ptr %ek, ptr %v.dbg.spill89, align 8, !dbg !1671
  call void @llvm.dbg.declare(metadata ptr %v.dbg.spill89, metadata !1639, metadata !DIExpression()), !dbg !1703
  %_94 = load i32, ptr %ek, align 4, !dbg !1671, !noundef !23
  %32 = icmp eq i32 %_94, 30, !dbg !1671
  br i1 %32, label %bb61, label %bb62, !dbg !1671

bb61:                                             ; preds = %bb60
  %v90 = load i32, ptr %ek, align 4, !dbg !1671, !noundef !23
  store i32 %v90, ptr %v.dbg.spill91, align 4, !dbg !1671
  call void @llvm.dbg.declare(metadata ptr %v.dbg.spill91, metadata !1637, metadata !DIExpression()), !dbg !1703
  store i8 30, ptr %_0, align 1, !dbg !1703
  br label %bb83, !dbg !1671

bb62:                                             ; preds = %bb60
  store ptr %ek, ptr %v.dbg.spill92, align 8, !dbg !1671
  call void @llvm.dbg.declare(metadata ptr %v.dbg.spill92, metadata !1642, metadata !DIExpression()), !dbg !1704
  %_97 = load i32, ptr %ek, align 4, !dbg !1671, !noundef !23
  %33 = icmp eq i32 %_97, 31, !dbg !1671
  br i1 %33, label %bb63, label %bb64, !dbg !1671

bb63:                                             ; preds = %bb62
  %v93 = load i32, ptr %ek, align 4, !dbg !1671, !noundef !23
  store i32 %v93, ptr %v.dbg.spill94, align 4, !dbg !1671
  call void @llvm.dbg.declare(metadata ptr %v.dbg.spill94, metadata !1640, metadata !DIExpression()), !dbg !1704
  store i8 31, ptr %_0, align 1, !dbg !1704
  br label %bb83, !dbg !1671

bb64:                                             ; preds = %bb62
  store ptr %ek, ptr %v.dbg.spill95, align 8, !dbg !1671
  call void @llvm.dbg.declare(metadata ptr %v.dbg.spill95, metadata !1645, metadata !DIExpression()), !dbg !1705
  %_100 = load i32, ptr %ek, align 4, !dbg !1671, !noundef !23
  %34 = icmp eq i32 %_100, 32, !dbg !1671
  br i1 %34, label %bb65, label %bb66, !dbg !1671

bb65:                                             ; preds = %bb64
  %v96 = load i32, ptr %ek, align 4, !dbg !1671, !noundef !23
  store i32 %v96, ptr %v.dbg.spill97, align 4, !dbg !1671
  call void @llvm.dbg.declare(metadata ptr %v.dbg.spill97, metadata !1643, metadata !DIExpression()), !dbg !1705
  store i8 32, ptr %_0, align 1, !dbg !1705
  br label %bb83, !dbg !1671

bb66:                                             ; preds = %bb64
  store ptr %ek, ptr %v.dbg.spill98, align 8, !dbg !1671
  call void @llvm.dbg.declare(metadata ptr %v.dbg.spill98, metadata !1648, metadata !DIExpression()), !dbg !1706
  %_103 = load i32, ptr %ek, align 4, !dbg !1671, !noundef !23
  %35 = icmp eq i32 %_103, 33, !dbg !1671
  br i1 %35, label %bb67, label %bb68, !dbg !1671

bb67:                                             ; preds = %bb66
  %v99 = load i32, ptr %ek, align 4, !dbg !1671, !noundef !23
  store i32 %v99, ptr %v.dbg.spill100, align 4, !dbg !1671
  call void @llvm.dbg.declare(metadata ptr %v.dbg.spill100, metadata !1646, metadata !DIExpression()), !dbg !1706
  store i8 33, ptr %_0, align 1, !dbg !1706
  br label %bb83, !dbg !1671

bb68:                                             ; preds = %bb66
  store ptr %ek, ptr %v.dbg.spill101, align 8, !dbg !1671
  call void @llvm.dbg.declare(metadata ptr %v.dbg.spill101, metadata !1651, metadata !DIExpression()), !dbg !1707
  %_106 = load i32, ptr %ek, align 4, !dbg !1671, !noundef !23
  %36 = icmp eq i32 %_106, 34, !dbg !1671
  br i1 %36, label %bb69, label %bb70, !dbg !1671

bb69:                                             ; preds = %bb68
  %v102 = load i32, ptr %ek, align 4, !dbg !1671, !noundef !23
  store i32 %v102, ptr %v.dbg.spill103, align 4, !dbg !1671
  call void @llvm.dbg.declare(metadata ptr %v.dbg.spill103, metadata !1649, metadata !DIExpression()), !dbg !1707
  store i8 34, ptr %_0, align 1, !dbg !1707
  br label %bb83, !dbg !1671

bb70:                                             ; preds = %bb68
  store ptr %ek, ptr %v.dbg.spill104, align 8, !dbg !1671
  call void @llvm.dbg.declare(metadata ptr %v.dbg.spill104, metadata !1654, metadata !DIExpression()), !dbg !1708
  %_109 = load i32, ptr %ek, align 4, !dbg !1671, !noundef !23
  %37 = icmp eq i32 %_109, 35, !dbg !1671
  br i1 %37, label %bb71, label %bb72, !dbg !1671

bb71:                                             ; preds = %bb70
  %v105 = load i32, ptr %ek, align 4, !dbg !1671, !noundef !23
  store i32 %v105, ptr %v.dbg.spill106, align 4, !dbg !1671
  call void @llvm.dbg.declare(metadata ptr %v.dbg.spill106, metadata !1652, metadata !DIExpression()), !dbg !1708
  store i8 35, ptr %_0, align 1, !dbg !1708
  br label %bb83, !dbg !1671

bb72:                                             ; preds = %bb70
  store ptr %ek, ptr %v.dbg.spill107, align 8, !dbg !1671
  call void @llvm.dbg.declare(metadata ptr %v.dbg.spill107, metadata !1657, metadata !DIExpression()), !dbg !1709
  %_112 = load i32, ptr %ek, align 4, !dbg !1671, !noundef !23
  %38 = icmp eq i32 %_112, 39, !dbg !1671
  br i1 %38, label %bb73, label %bb74, !dbg !1671

bb73:                                             ; preds = %bb72
  %v108 = load i32, ptr %ek, align 4, !dbg !1671, !noundef !23
  store i32 %v108, ptr %v.dbg.spill109, align 4, !dbg !1671
  call void @llvm.dbg.declare(metadata ptr %v.dbg.spill109, metadata !1655, metadata !DIExpression()), !dbg !1709
  store i8 39, ptr %_0, align 1, !dbg !1709
  br label %bb83, !dbg !1671

bb74:                                             ; preds = %bb72
  store ptr %ek, ptr %v.dbg.spill110, align 8, !dbg !1671
  call void @llvm.dbg.declare(metadata ptr %v.dbg.spill110, metadata !1660, metadata !DIExpression()), !dbg !1710
  %_115 = load i32, ptr %ek, align 4, !dbg !1671, !noundef !23
  %39 = icmp eq i32 %_115, 37, !dbg !1671
  br i1 %39, label %bb75, label %bb76, !dbg !1671

bb75:                                             ; preds = %bb74
  %v111 = load i32, ptr %ek, align 4, !dbg !1671, !noundef !23
  store i32 %v111, ptr %v.dbg.spill112, align 4, !dbg !1671
  call void @llvm.dbg.declare(metadata ptr %v.dbg.spill112, metadata !1658, metadata !DIExpression()), !dbg !1710
  store i8 37, ptr %_0, align 1, !dbg !1710
  br label %bb83, !dbg !1671

bb76:                                             ; preds = %bb74
  store ptr %ek, ptr %v.dbg.spill113, align 8, !dbg !1671
  call void @llvm.dbg.declare(metadata ptr %v.dbg.spill113, metadata !1663, metadata !DIExpression()), !dbg !1711
  %_118 = load i32, ptr %ek, align 4, !dbg !1671, !noundef !23
  %40 = icmp eq i32 %_118, 36, !dbg !1671
  br i1 %40, label %bb77, label %bb78, !dbg !1671

bb77:                                             ; preds = %bb76
  %v114 = load i32, ptr %ek, align 4, !dbg !1671, !noundef !23
  store i32 %v114, ptr %v.dbg.spill115, align 4, !dbg !1671
  call void @llvm.dbg.declare(metadata ptr %v.dbg.spill115, metadata !1661, metadata !DIExpression()), !dbg !1711
  store i8 36, ptr %_0, align 1, !dbg !1711
  br label %bb83, !dbg !1671

bb78:                                             ; preds = %bb76
  store ptr %ek, ptr %v.dbg.spill116, align 8, !dbg !1671
  call void @llvm.dbg.declare(metadata ptr %v.dbg.spill116, metadata !1666, metadata !DIExpression()), !dbg !1712
  %_121 = load i32, ptr %ek, align 4, !dbg !1671, !noundef !23
  %41 = icmp eq i32 %_121, 38, !dbg !1671
  br i1 %41, label %bb79, label %bb80, !dbg !1671

bb79:                                             ; preds = %bb78
  %v117 = load i32, ptr %ek, align 4, !dbg !1671, !noundef !23
  store i32 %v117, ptr %v.dbg.spill118, align 4, !dbg !1671
  call void @llvm.dbg.declare(metadata ptr %v.dbg.spill118, metadata !1664, metadata !DIExpression()), !dbg !1712
  store i8 38, ptr %_0, align 1, !dbg !1712
  br label %bb83, !dbg !1671

bb80:                                             ; preds = %bb78
  store ptr %ek, ptr %v.dbg.spill119, align 8, !dbg !1671
  call void @llvm.dbg.declare(metadata ptr %v.dbg.spill119, metadata !1669, metadata !DIExpression()), !dbg !1713
  %_124 = load i32, ptr %ek, align 4, !dbg !1671, !noundef !23
  %42 = icmp eq i32 %_124, 40, !dbg !1671
  br i1 %42, label %bb81, label %bb82, !dbg !1671

bb81:                                             ; preds = %bb80
  %v120 = load i32, ptr %ek, align 4, !dbg !1671, !noundef !23
  store i32 %v120, ptr %v.dbg.spill121, align 4, !dbg !1671
  call void @llvm.dbg.declare(metadata ptr %v.dbg.spill121, metadata !1667, metadata !DIExpression()), !dbg !1713
  store i8 40, ptr %_0, align 1, !dbg !1713
  br label %bb83, !dbg !1671

bb82:                                             ; preds = %bb80
  store i8 41, ptr %_0, align 1, !dbg !1671
  br label %bb83, !dbg !1671
}

; std::rt::lang_start
; Function Attrs: noinline nonlazybind uwtable
define hidden i64 @_ZN3std2rt10lang_start17h78c5211bb1c840f9E(ptr %main, i64 %argc, ptr %argv, i8 %sigpipe) unnamed_addr #2 !dbg !1714 {
start:
  %v.dbg.spill = alloca i64, align 8
  %sigpipe.dbg.spill = alloca i8, align 1
  %argv.dbg.spill = alloca ptr, align 8
  %argc.dbg.spill = alloca i64, align 8
  %main.dbg.spill = alloca ptr, align 8
  %_8 = alloca ptr, align 8
  %_5 = alloca i64, align 8
  store ptr %main, ptr %main.dbg.spill, align 8
  call void @llvm.dbg.declare(metadata ptr %main.dbg.spill, metadata !1720, metadata !DIExpression()), !dbg !1726
  store i64 %argc, ptr %argc.dbg.spill, align 8
  call void @llvm.dbg.declare(metadata ptr %argc.dbg.spill, metadata !1721, metadata !DIExpression()), !dbg !1727
  store ptr %argv, ptr %argv.dbg.spill, align 8
  call void @llvm.dbg.declare(metadata ptr %argv.dbg.spill, metadata !1722, metadata !DIExpression()), !dbg !1728
  store i8 %sigpipe, ptr %sigpipe.dbg.spill, align 1
  call void @llvm.dbg.declare(metadata ptr %sigpipe.dbg.spill, metadata !1723, metadata !DIExpression()), !dbg !1729
  store ptr %main, ptr %_8, align 8, !dbg !1730
; call std::rt::lang_start_internal
  %0 = call i64 @_ZN3std2rt19lang_start_internal17h12de51168669836eE(ptr align 1 %_8, ptr align 8 @vtable.0, i64 %argc, ptr %argv, i8 %sigpipe), !dbg !1731
  store i64 %0, ptr %_5, align 8, !dbg !1731
  %v = load i64, ptr %_5, align 8, !dbg !1732, !noundef !23
  store i64 %v, ptr %v.dbg.spill, align 8, !dbg !1732
  call void @llvm.dbg.declare(metadata ptr %v.dbg.spill, metadata !1724, metadata !DIExpression()), !dbg !1733
  ret i64 %v, !dbg !1734
}

; std::rt::lang_start::{{closure}}
; Function Attrs: inlinehint nonlazybind uwtable
define internal i32 @"_ZN3std2rt10lang_start28_$u7b$$u7b$closure$u7d$$u7d$17hd2f9c3e545533eacE"(ptr align 8 %_1) unnamed_addr #0 !dbg !1735 {
start:
  %self.dbg.spill = alloca ptr, align 8
  %_1.dbg.spill = alloca ptr, align 8
  %self = alloca i8, align 1
  store ptr %_1, ptr %_1.dbg.spill, align 8
  call void @llvm.dbg.declare(metadata ptr %_1.dbg.spill, metadata !1740, metadata !DIExpression(DW_OP_deref)), !dbg !1741
  call void @llvm.dbg.declare(metadata ptr %self, metadata !1742, metadata !DIExpression()), !dbg !1759
  %_4 = load ptr, ptr %_1, align 8, !dbg !1761, !nonnull !23, !noundef !23
; call std::sys_common::backtrace::__rust_begin_short_backtrace
  call void @_ZN3std10sys_common9backtrace28__rust_begin_short_backtrace17hac2bfb2fa376c319E(ptr %_4), !dbg !1762
; call <() as std::process::Termination>::report
  %0 = call i8 @"_ZN54_$LT$$LP$$RP$$u20$as$u20$std..process..Termination$GT$6report17h82fc9ffdb870fd8cE"(), !dbg !1762
  store i8 %0, ptr %self, align 1, !dbg !1762
  store ptr %self, ptr %self.dbg.spill, align 8, !dbg !1763
  call void @llvm.dbg.declare(metadata ptr %self.dbg.spill, metadata !1764, metadata !DIExpression()), !dbg !1773
  %_6 = load i8, ptr %self, align 1, !dbg !1775, !noundef !23
  %_0 = zext i8 %_6 to i32, !dbg !1775
  ret i32 %_0, !dbg !1776
}

; std::path::<impl core::convert::AsRef<std::path::Path> for alloc::string::String>::as_ref
; Function Attrs: inlinehint nonlazybind uwtable
define internal { ptr, i64 } @"_ZN3std4path95_$LT$impl$u20$core..convert..AsRef$LT$std..path..Path$GT$$u20$for$u20$alloc..string..String$GT$6as_ref17h6ddfa15c4afb4af5E"(ptr align 8 %self) unnamed_addr #0 !dbg !1777 {
start:
  %inner.dbg.spill = alloca { ptr, i64 }, align 8
  %s.dbg.spill = alloca { ptr, i64 }, align 8
  %self.dbg.spill5 = alloca { ptr, i64 }, align 8
  %v.dbg.spill = alloca { ptr, i64 }, align 8
  %data_address.dbg.spill = alloca ptr, align 8
  %len.dbg.spill = alloca i64, align 8
  %data.dbg.spill = alloca ptr, align 8
  %self.dbg.spill4 = alloca ptr, align 8
  %self.dbg.spill2 = alloca ptr, align 8
  %self.dbg.spill1 = alloca ptr, align 8
  %self.dbg.spill = alloca ptr, align 8
  %_16 = alloca { ptr, i64 }, align 8
  %_15 = alloca %"core::ptr::metadata::PtrRepr<[u8]>", align 8
  store ptr %self, ptr %self.dbg.spill, align 8
  call void @llvm.dbg.declare(metadata ptr %self.dbg.spill, metadata !1798, metadata !DIExpression()), !dbg !1799
  call void @llvm.dbg.declare(metadata ptr %self.dbg.spill, metadata !1800, metadata !DIExpression()), !dbg !1807
  call void @llvm.dbg.declare(metadata ptr %self.dbg.spill, metadata !1809, metadata !DIExpression()), !dbg !1822
  call void @llvm.dbg.declare(metadata ptr %self.dbg.spill, metadata !1824, metadata !DIExpression()), !dbg !1831
  store ptr %self, ptr %self.dbg.spill1, align 8, !dbg !1833
  call void @llvm.dbg.declare(metadata ptr %self.dbg.spill1, metadata !1834, metadata !DIExpression()), !dbg !1838
  call void @llvm.dbg.declare(metadata ptr %self.dbg.spill1, metadata !1839, metadata !DIExpression()), !dbg !1843
  store ptr %self, ptr %self.dbg.spill2, align 8, !dbg !1845
  call void @llvm.dbg.declare(metadata ptr %self.dbg.spill2, metadata !1846, metadata !DIExpression()), !dbg !1850
  %self3 = load ptr, ptr %self, align 8, !dbg !1852, !nonnull !23, !noundef !23
  store ptr %self3, ptr %self.dbg.spill4, align 8, !dbg !1852
  call void @llvm.dbg.declare(metadata ptr %self.dbg.spill4, metadata !1853, metadata !DIExpression()), !dbg !1857
  call void @llvm.dbg.declare(metadata ptr %self.dbg.spill4, metadata !1859, metadata !DIExpression()), !dbg !1863
  store ptr %self3, ptr %data.dbg.spill, align 8, !dbg !1845
  call void @llvm.dbg.declare(metadata ptr %data.dbg.spill, metadata !1865, metadata !DIExpression()), !dbg !1870
  call void @llvm.dbg.declare(metadata ptr %data.dbg.spill, metadata !1872, metadata !DIExpression()), !dbg !1877
  call void @llvm.dbg.declare(metadata ptr %data.dbg.spill, metadata !1879, metadata !DIExpression()), !dbg !1883
  %0 = getelementptr inbounds %"alloc::vec::Vec<u8>", ptr %self, i32 0, i32 1, !dbg !1885
  %len = load i64, ptr %0, align 8, !dbg !1885, !noundef !23
  store i64 %len, ptr %len.dbg.spill, align 8, !dbg !1885
  call void @llvm.dbg.declare(metadata ptr %len.dbg.spill, metadata !1869, metadata !DIExpression()), !dbg !1886
  call void @llvm.dbg.declare(metadata ptr %len.dbg.spill, metadata !1876, metadata !DIExpression()), !dbg !1887
  call void @llvm.dbg.declare(metadata ptr %len.dbg.spill, metadata !1888, metadata !DIExpression()), !dbg !1893
  store ptr %self3, ptr %data_address.dbg.spill, align 8, !dbg !1895
  call void @llvm.dbg.declare(metadata ptr %data_address.dbg.spill, metadata !1892, metadata !DIExpression()), !dbg !1896
  store ptr %self3, ptr %_16, align 8, !dbg !1897
  %1 = getelementptr inbounds { ptr, i64 }, ptr %_16, i32 0, i32 1, !dbg !1897
  store i64 %len, ptr %1, align 8, !dbg !1897
  %2 = getelementptr inbounds { ptr, i64 }, ptr %_16, i32 0, i32 0, !dbg !1898
  %3 = load ptr, ptr %2, align 8, !dbg !1898, !noundef !23
  %4 = getelementptr inbounds { ptr, i64 }, ptr %_16, i32 0, i32 1, !dbg !1898
  %5 = load i64, ptr %4, align 8, !dbg !1898, !noundef !23
  %6 = getelementptr inbounds { ptr, i64 }, ptr %_15, i32 0, i32 0, !dbg !1898
  store ptr %3, ptr %6, align 8, !dbg !1898
  %7 = getelementptr inbounds { ptr, i64 }, ptr %_15, i32 0, i32 1, !dbg !1898
  store i64 %5, ptr %7, align 8, !dbg !1898
  %8 = getelementptr inbounds { ptr, i64 }, ptr %_15, i32 0, i32 0, !dbg !1898
  %v.0 = load ptr, ptr %8, align 8, !dbg !1898, !noundef !23
  %9 = getelementptr inbounds { ptr, i64 }, ptr %_15, i32 0, i32 1, !dbg !1898
  %v.1 = load i64, ptr %9, align 8, !dbg !1898, !noundef !23
  %10 = getelementptr inbounds { ptr, i64 }, ptr %v.dbg.spill, i32 0, i32 0, !dbg !1898
  store ptr %v.0, ptr %10, align 8, !dbg !1898
  %11 = getelementptr inbounds { ptr, i64 }, ptr %v.dbg.spill, i32 0, i32 1, !dbg !1898
  store i64 %v.1, ptr %11, align 8, !dbg !1898
  call void @llvm.dbg.declare(metadata ptr %v.dbg.spill, metadata !1899, metadata !DIExpression()), !dbg !1903
  %12 = getelementptr inbounds { ptr, i64 }, ptr %self.dbg.spill5, i32 0, i32 0, !dbg !1905
  store ptr %v.0, ptr %12, align 8, !dbg !1905
  %13 = getelementptr inbounds { ptr, i64 }, ptr %self.dbg.spill5, i32 0, i32 1, !dbg !1905
  store i64 %v.1, ptr %13, align 8, !dbg !1905
  call void @llvm.dbg.declare(metadata ptr %self.dbg.spill5, metadata !1906, metadata !DIExpression()), !dbg !1913
  call void @llvm.dbg.declare(metadata ptr %self.dbg.spill5, metadata !1915, metadata !DIExpression()), !dbg !1928
  call void @llvm.dbg.declare(metadata ptr %self.dbg.spill5, metadata !1930, metadata !DIExpression()), !dbg !1938
  %14 = getelementptr inbounds { ptr, i64 }, ptr %s.dbg.spill, i32 0, i32 0, !dbg !1940
  store ptr %v.0, ptr %14, align 8, !dbg !1940
  %15 = getelementptr inbounds { ptr, i64 }, ptr %s.dbg.spill, i32 0, i32 1, !dbg !1940
  store i64 %v.1, ptr %15, align 8, !dbg !1940
  call void @llvm.dbg.declare(metadata ptr %s.dbg.spill, metadata !1941, metadata !DIExpression()), !dbg !1948
  %16 = getelementptr inbounds { ptr, i64 }, ptr %inner.dbg.spill, i32 0, i32 0, !dbg !1950
  store ptr %v.0, ptr %16, align 8, !dbg !1950
  %17 = getelementptr inbounds { ptr, i64 }, ptr %inner.dbg.spill, i32 0, i32 1, !dbg !1950
  store i64 %v.1, ptr %17, align 8, !dbg !1950
  call void @llvm.dbg.declare(metadata ptr %inner.dbg.spill, metadata !1951, metadata !DIExpression()), !dbg !1958
  %18 = insertvalue { ptr, i64 } poison, ptr %v.0, 0, !dbg !1960
  %19 = insertvalue { ptr, i64 } %18, i64 %v.1, 1, !dbg !1960
  ret { ptr, i64 } %19, !dbg !1960
}

; <&T as core::fmt::Debug>::fmt
; Function Attrs: nonlazybind uwtable
define internal zeroext i1 @"_ZN42_$LT$$RF$T$u20$as$u20$core..fmt..Debug$GT$3fmt17h0e2fe47df897c481E"(ptr align 8 %self, ptr align 8 %f) unnamed_addr #1 !dbg !1961 {
start:
  %f.dbg.spill = alloca ptr, align 8
  %self.dbg.spill = alloca ptr, align 8
  store ptr %self, ptr %self.dbg.spill, align 8
  call void @llvm.dbg.declare(metadata ptr %self.dbg.spill, metadata !1967, metadata !DIExpression()), !dbg !1971
  store ptr %f, ptr %f.dbg.spill, align 8
  call void @llvm.dbg.declare(metadata ptr %f.dbg.spill, metadata !1968, metadata !DIExpression()), !dbg !1972
  %_3 = load ptr, ptr %self, align 8, !dbg !1973, !nonnull !23, !align !935, !noundef !23
; call <core::option::Option<T> as core::fmt::Debug>::fmt
  %_0 = call zeroext i1 @"_ZN66_$LT$core..option..Option$LT$T$GT$$u20$as$u20$core..fmt..Debug$GT$3fmt17h3fe73e222f230d27E"(ptr align 8 %_3, ptr align 8 %f), !dbg !1974
  ret i1 %_0, !dbg !1975
}

; <&T as core::fmt::Debug>::fmt
; Function Attrs: nonlazybind uwtable
define internal zeroext i1 @"_ZN42_$LT$$RF$T$u20$as$u20$core..fmt..Debug$GT$3fmt17h2f985886c9c7670eE"(ptr align 8 %self, ptr align 8 %f) unnamed_addr #1 !dbg !1976 {
start:
  %f.dbg.spill = alloca ptr, align 8
  %self.dbg.spill = alloca ptr, align 8
  store ptr %self, ptr %self.dbg.spill, align 8
  call void @llvm.dbg.declare(metadata ptr %self.dbg.spill, metadata !1981, metadata !DIExpression()), !dbg !1983
  store ptr %f, ptr %f.dbg.spill, align 8
  call void @llvm.dbg.declare(metadata ptr %f.dbg.spill, metadata !1982, metadata !DIExpression()), !dbg !1984
  %_3 = load ptr, ptr %self, align 8, !dbg !1985, !nonnull !23, !align !935, !noundef !23
; call core::fmt::num::<impl core::fmt::Debug for usize>::fmt
  %_0 = call zeroext i1 @"_ZN4core3fmt3num52_$LT$impl$u20$core..fmt..Debug$u20$for$u20$usize$GT$3fmt17h0779640516f64e76E"(ptr align 8 %_3, ptr align 8 %f), !dbg !1986
  ret i1 %_0, !dbg !1987
}

; <&T as core::fmt::Debug>::fmt
; Function Attrs: nonlazybind uwtable
define internal zeroext i1 @"_ZN42_$LT$$RF$T$u20$as$u20$core..fmt..Debug$GT$3fmt17h4d228b8d567b74d0E"(ptr align 8 %self, ptr align 8 %f) unnamed_addr #1 !dbg !1988 {
start:
  %f.dbg.spill = alloca ptr, align 8
  %self.dbg.spill = alloca ptr, align 8
  store ptr %self, ptr %self.dbg.spill, align 8
  call void @llvm.dbg.declare(metadata ptr %self.dbg.spill, metadata !1993, metadata !DIExpression()), !dbg !1997
  store ptr %f, ptr %f.dbg.spill, align 8
  call void @llvm.dbg.declare(metadata ptr %f.dbg.spill, metadata !1994, metadata !DIExpression()), !dbg !1998
  %_3 = load ptr, ptr %self, align 8, !dbg !1999, !nonnull !23, !align !935, !noundef !23
; call <std::io::error::Error as core::fmt::Debug>::fmt
  %_0 = call zeroext i1 @"_ZN58_$LT$std..io..error..Error$u20$as$u20$core..fmt..Debug$GT$3fmt17hcda221c82c761944E"(ptr align 8 %_3, ptr align 8 %f), !dbg !2000
  ret i1 %_0, !dbg !2001
}

; <&T as core::fmt::Display>::fmt
; Function Attrs: nonlazybind uwtable
define internal zeroext i1 @"_ZN44_$LT$$RF$T$u20$as$u20$core..fmt..Display$GT$3fmt17h318f95d07aab338cE"(ptr align 8 %self, ptr align 8 %f) unnamed_addr #1 !dbg !2002 {
start:
  %f.dbg.spill = alloca ptr, align 8
  %self.dbg.spill = alloca ptr, align 8
  store ptr %self, ptr %self.dbg.spill, align 8
  call void @llvm.dbg.declare(metadata ptr %self.dbg.spill, metadata !2008, metadata !DIExpression()), !dbg !2010
  store ptr %f, ptr %f.dbg.spill, align 8
  call void @llvm.dbg.declare(metadata ptr %f.dbg.spill, metadata !2009, metadata !DIExpression()), !dbg !2011
  %_3 = load ptr, ptr %self, align 8, !dbg !2012, !nonnull !23, !align !935, !noundef !23
; call <alloc::string::String as core::fmt::Display>::fmt
  %_0 = call zeroext i1 @"_ZN60_$LT$alloc..string..String$u20$as$u20$core..fmt..Display$GT$3fmt17h3be3cf9a95d82b58E"(ptr align 8 %_3, ptr align 8 %f), !dbg !2013
  ret i1 %_0, !dbg !2014
}

; <&T as core::fmt::Display>::fmt
; Function Attrs: nonlazybind uwtable
define internal zeroext i1 @"_ZN44_$LT$$RF$T$u20$as$u20$core..fmt..Display$GT$3fmt17hfbcf2add63d83de8E"(ptr align 8 %self, ptr align 8 %f) unnamed_addr #1 !dbg !2015 {
start:
  %f.dbg.spill = alloca ptr, align 8
  %self.dbg.spill = alloca ptr, align 8
  store ptr %self, ptr %self.dbg.spill, align 8
  call void @llvm.dbg.declare(metadata ptr %self.dbg.spill, metadata !2020, metadata !DIExpression()), !dbg !2022
  store ptr %f, ptr %f.dbg.spill, align 8
  call void @llvm.dbg.declare(metadata ptr %f.dbg.spill, metadata !2021, metadata !DIExpression()), !dbg !2023
  %0 = getelementptr inbounds { ptr, i64 }, ptr %self, i32 0, i32 0, !dbg !2024
  %_3.0 = load ptr, ptr %0, align 8, !dbg !2024, !nonnull !23, !align !673, !noundef !23
  %1 = getelementptr inbounds { ptr, i64 }, ptr %self, i32 0, i32 1, !dbg !2024
  %_3.1 = load i64, ptr %1, align 8, !dbg !2024, !noundef !23
; call <str as core::fmt::Display>::fmt
  %_0 = call zeroext i1 @"_ZN42_$LT$str$u20$as$u20$core..fmt..Display$GT$3fmt17h6451c4f4b912c48bE"(ptr align 1 %_3.0, i64 %_3.1, ptr align 8 %f), !dbg !2025
  ret i1 %_0, !dbg !2026
}

; <usize as core::iter::range::Step>::forward_unchecked
; Function Attrs: inlinehint nonlazybind uwtable
define internal i64 @"_ZN49_$LT$usize$u20$as$u20$core..iter..range..Step$GT$17forward_unchecked17h5ef0ea640400f23dE"(i64 %start1, i64 %n) unnamed_addr #0 !dbg !2027 {
start:
  %n.dbg.spill = alloca i64, align 8
  %start.dbg.spill = alloca i64, align 8
  store i64 %start1, ptr %start.dbg.spill, align 8
  call void @llvm.dbg.declare(metadata ptr %start.dbg.spill, metadata !2033, metadata !DIExpression()), !dbg !2035
  call void @llvm.dbg.declare(metadata ptr %start.dbg.spill, metadata !2036, metadata !DIExpression()), !dbg !2042
  store i64 %n, ptr %n.dbg.spill, align 8
  call void @llvm.dbg.declare(metadata ptr %n.dbg.spill, metadata !2034, metadata !DIExpression()), !dbg !2044
  call void @llvm.dbg.declare(metadata ptr %n.dbg.spill, metadata !2041, metadata !DIExpression()), !dbg !2042
  %_0 = add nuw i64 %start1, %n, !dbg !2042
  ret i64 %_0, !dbg !2045
}

; <usize as core::iter::range::Step>::backward_unchecked
; Function Attrs: inlinehint nonlazybind uwtable
define internal i64 @"_ZN49_$LT$usize$u20$as$u20$core..iter..range..Step$GT$18backward_unchecked17h750257cbe035b129E"(i64 %start1, i64 %n) unnamed_addr #0 !dbg !2046 {
start:
  %n.dbg.spill = alloca i64, align 8
  %start.dbg.spill = alloca i64, align 8
  store i64 %start1, ptr %start.dbg.spill, align 8
  call void @llvm.dbg.declare(metadata ptr %start.dbg.spill, metadata !2048, metadata !DIExpression()), !dbg !2050
  call void @llvm.dbg.declare(metadata ptr %start.dbg.spill, metadata !2051, metadata !DIExpression()), !dbg !2057
  store i64 %n, ptr %n.dbg.spill, align 8
  call void @llvm.dbg.declare(metadata ptr %n.dbg.spill, metadata !2049, metadata !DIExpression()), !dbg !2059
  call void @llvm.dbg.declare(metadata ptr %n.dbg.spill, metadata !2056, metadata !DIExpression()), !dbg !2057
  %_0 = sub nuw i64 %start1, %n, !dbg !2057
  ret i64 %_0, !dbg !2060
}

; core::cmp::impls::<impl core::cmp::Ord for usize>::cmp
; Function Attrs: inlinehint nonlazybind uwtable
define internal i8 @"_ZN4core3cmp5impls50_$LT$impl$u20$core..cmp..Ord$u20$for$u20$usize$GT$3cmp17he7bcb83e65a1bdefE"(ptr align 8 %self, ptr align 8 %other) unnamed_addr #0 !dbg !2061 {
start:
  %other.dbg.spill = alloca ptr, align 8
  %self.dbg.spill = alloca ptr, align 8
  %_0 = alloca i8, align 1
  store ptr %self, ptr %self.dbg.spill, align 8
  call void @llvm.dbg.declare(metadata ptr %self.dbg.spill, metadata !2067, metadata !DIExpression()), !dbg !2069
  store ptr %other, ptr %other.dbg.spill, align 8
  call void @llvm.dbg.declare(metadata ptr %other.dbg.spill, metadata !2068, metadata !DIExpression()), !dbg !2070
  %_4 = load i64, ptr %self, align 8, !dbg !2071, !noundef !23
  %_5 = load i64, ptr %other, align 8, !dbg !2072, !noundef !23
  %_3 = icmp ult i64 %_4, %_5, !dbg !2071
  br i1 %_3, label %bb1, label %bb2, !dbg !2071

bb2:                                              ; preds = %start
  %_7 = load i64, ptr %self, align 8, !dbg !2073, !noundef !23
  %_8 = load i64, ptr %other, align 8, !dbg !2074, !noundef !23
  %_6 = icmp eq i64 %_7, %_8, !dbg !2073
  br i1 %_6, label %bb3, label %bb4, !dbg !2073

bb1:                                              ; preds = %start
  store i8 -1, ptr %_0, align 1, !dbg !2075
  br label %bb6, !dbg !2076

bb4:                                              ; preds = %bb2
  store i8 1, ptr %_0, align 1, !dbg !2077
  br label %bb5, !dbg !2078

bb3:                                              ; preds = %bb2
  store i8 0, ptr %_0, align 1, !dbg !2079
  br label %bb5, !dbg !2078

bb5:                                              ; preds = %bb3, %bb4
  br label %bb6, !dbg !2076

bb6:                                              ; preds = %bb1, %bb5
  %0 = load i8, ptr %_0, align 1, !dbg !2080, !range !2081, !noundef !23
  ret i8 %0, !dbg !2080
}

; core::cmp::max_by
; Function Attrs: inlinehint nonlazybind uwtable
define internal i64 @_ZN4core3cmp6max_by17hf6a729ffb5e34c21E(i64 %0, i64 %1) unnamed_addr #0 personality ptr @rust_eh_personality !dbg !2082 {
start:
  %2 = alloca { ptr, i32 }, align 8
  %compare.dbg.spill = alloca {}, align 1
  %_10 = alloca i8, align 1
  %_9 = alloca i8, align 1
  %_5 = alloca { ptr, ptr }, align 8
  %_4 = alloca i8, align 1
  %_0 = alloca i64, align 8
  %v2 = alloca i64, align 8
  %v1 = alloca i64, align 8
  store i64 %0, ptr %v1, align 8
  store i64 %1, ptr %v2, align 8
  call void @llvm.dbg.declare(metadata ptr %v1, metadata !2087, metadata !DIExpression()), !dbg !2092
  call void @llvm.dbg.declare(metadata ptr %v2, metadata !2088, metadata !DIExpression()), !dbg !2093
  call void @llvm.dbg.declare(metadata ptr %compare.dbg.spill, metadata !2089, metadata !DIExpression()), !dbg !2094
  store i8 1, ptr %_10, align 1, !dbg !2095
  store i8 1, ptr %_9, align 1, !dbg !2095
  store ptr %v1, ptr %_5, align 8, !dbg !2095
  %3 = getelementptr inbounds { ptr, ptr }, ptr %_5, i32 0, i32 1, !dbg !2095
  store ptr %v2, ptr %3, align 8, !dbg !2095
  %4 = getelementptr inbounds { ptr, ptr }, ptr %_5, i32 0, i32 0, !dbg !2095
  %5 = load ptr, ptr %4, align 8, !dbg !2095, !nonnull !23, !align !935, !noundef !23
  %6 = getelementptr inbounds { ptr, ptr }, ptr %_5, i32 0, i32 1, !dbg !2095
  %7 = load ptr, ptr %6, align 8, !dbg !2095, !nonnull !23, !align !935, !noundef !23
; invoke core::ops::function::FnOnce::call_once
  %8 = invoke i8 @_ZN4core3ops8function6FnOnce9call_once17hdc1882a264ba2c58E(ptr align 8 %5, ptr align 8 %7)
          to label %bb1 unwind label %cleanup, !dbg !2095, !range !2081

bb8:                                              ; preds = %cleanup
  br label %bb13, !dbg !2096

cleanup:                                          ; preds = %start
  %9 = landingpad { ptr, i32 }
          cleanup
  %10 = extractvalue { ptr, i32 } %9, 0
  %11 = extractvalue { ptr, i32 } %9, 1
  %12 = getelementptr inbounds { ptr, i32 }, ptr %2, i32 0, i32 0
  store ptr %10, ptr %12, align 8
  %13 = getelementptr inbounds { ptr, i32 }, ptr %2, i32 0, i32 1
  store i32 %11, ptr %13, align 8
  br label %bb8

bb1:                                              ; preds = %start
  store i8 %8, ptr %_4, align 1, !dbg !2095
  %_8 = load i8, ptr %_4, align 1, !dbg !2095, !range !2081, !noundef !23
  switch i8 %_8, label %bb3 [
    i8 -1, label %bb4
    i8 0, label %bb4
    i8 1, label %bb2
  ], !dbg !2097

bb3:                                              ; preds = %bb1
  unreachable, !dbg !2095

bb4:                                              ; preds = %bb1, %bb1
  store i8 0, ptr %_9, align 1, !dbg !2098
  %14 = load i64, ptr %v2, align 8, !dbg !2098, !noundef !23
  store i64 %14, ptr %_0, align 8, !dbg !2098
  br label %bb5, !dbg !2098

bb2:                                              ; preds = %bb1
  store i8 0, ptr %_10, align 1, !dbg !2099
  %15 = load i64, ptr %v1, align 8, !dbg !2099, !noundef !23
  store i64 %15, ptr %_0, align 8, !dbg !2099
  br label %bb5, !dbg !2099

bb5:                                              ; preds = %bb2, %bb4
  %16 = load i8, ptr %_9, align 1, !dbg !2096, !range !810, !noundef !23
  %17 = trunc i8 %16 to i1, !dbg !2096
  br i1 %17, label %bb10, label %bb6, !dbg !2096

bb6:                                              ; preds = %bb10, %bb5
  %18 = load i8, ptr %_10, align 1, !dbg !2096, !range !810, !noundef !23
  %19 = trunc i8 %18 to i1, !dbg !2096
  br i1 %19, label %bb11, label %bb7, !dbg !2096

bb10:                                             ; preds = %bb5
  br label %bb6, !dbg !2096

bb7:                                              ; preds = %bb11, %bb6
  %20 = load i64, ptr %_0, align 8, !dbg !2100, !noundef !23
  ret i64 %20, !dbg !2100

bb11:                                             ; preds = %bb6
  br label %bb7, !dbg !2096

bb13:                                             ; preds = %bb8
  %21 = load i8, ptr %_10, align 1, !dbg !2096, !range !810, !noundef !23
  %22 = trunc i8 %21 to i1, !dbg !2096
  br i1 %22, label %bb12, label %bb9, !dbg !2096

bb9:                                              ; preds = %bb12, %bb13
  %23 = load ptr, ptr %2, align 8, !dbg !2101, !noundef !23
  %24 = getelementptr inbounds { ptr, i32 }, ptr %2, i32 0, i32 1, !dbg !2101
  %25 = load i32, ptr %24, align 8, !dbg !2101, !noundef !23
  %26 = insertvalue { ptr, i32 } poison, ptr %23, 0, !dbg !2101
  %27 = insertvalue { ptr, i32 } %26, i32 %25, 1, !dbg !2101
  resume { ptr, i32 } %27, !dbg !2101

bb12:                                             ; preds = %bb13
  br label %bb9, !dbg !2096
}

; core::fmt::num::<impl core::fmt::Debug for usize>::fmt
; Function Attrs: inlinehint nonlazybind uwtable
define internal zeroext i1 @"_ZN4core3fmt3num52_$LT$impl$u20$core..fmt..Debug$u20$for$u20$usize$GT$3fmt17h0779640516f64e76E"(ptr align 8 %self, ptr align 8 %f) unnamed_addr #0 !dbg !2102 {
start:
  %f.dbg.spill = alloca ptr, align 8
  %self.dbg.spill = alloca ptr, align 8
  %_0 = alloca i8, align 1
  store ptr %self, ptr %self.dbg.spill, align 8
  call void @llvm.dbg.declare(metadata ptr %self.dbg.spill, metadata !2109, metadata !DIExpression()), !dbg !2111
  store ptr %f, ptr %f.dbg.spill, align 8
  call void @llvm.dbg.declare(metadata ptr %f.dbg.spill, metadata !2110, metadata !DIExpression()), !dbg !2112
  call void @llvm.dbg.declare(metadata ptr %f.dbg.spill, metadata !2113, metadata !DIExpression()), !dbg !2121
  call void @llvm.dbg.declare(metadata ptr %f.dbg.spill, metadata !2123, metadata !DIExpression()), !dbg !2128
  %0 = getelementptr inbounds %"core::fmt::Formatter<'_>", ptr %f, i32 0, i32 4, !dbg !2130
  %_4 = load i32, ptr %0, align 4, !dbg !2130, !noundef !23
  %_3 = and i32 %_4, 16, !dbg !2130
  %1 = icmp eq i32 %_3, 0, !dbg !2131
  br i1 %1, label %bb2, label %bb1, !dbg !2131

bb2:                                              ; preds = %start
  %2 = getelementptr inbounds %"core::fmt::Formatter<'_>", ptr %f, i32 0, i32 4, !dbg !2132
  %_6 = load i32, ptr %2, align 4, !dbg !2132, !noundef !23
  %_5 = and i32 %_6, 32, !dbg !2132
  %3 = icmp eq i32 %_5, 0, !dbg !2133
  br i1 %3, label %bb4, label %bb3, !dbg !2133

bb1:                                              ; preds = %start
; call core::fmt::num::<impl core::fmt::LowerHex for usize>::fmt
  %4 = call zeroext i1 @"_ZN4core3fmt3num55_$LT$impl$u20$core..fmt..LowerHex$u20$for$u20$usize$GT$3fmt17h1a5ff60c1a0930d8E"(ptr align 8 %self, ptr align 8 %f), !dbg !2134
  %5 = zext i1 %4 to i8, !dbg !2134
  store i8 %5, ptr %_0, align 1, !dbg !2134
  br label %bb5, !dbg !2134

bb4:                                              ; preds = %bb2
; call core::fmt::num::imp::<impl core::fmt::Display for usize>::fmt
  %6 = call zeroext i1 @"_ZN4core3fmt3num3imp54_$LT$impl$u20$core..fmt..Display$u20$for$u20$usize$GT$3fmt17ha1a895f323c363e4E"(ptr align 8 %self, ptr align 8 %f), !dbg !2135
  %7 = zext i1 %6 to i8, !dbg !2135
  store i8 %7, ptr %_0, align 1, !dbg !2135
  br label %bb5, !dbg !2135

bb3:                                              ; preds = %bb2
; call core::fmt::num::<impl core::fmt::UpperHex for usize>::fmt
  %8 = call zeroext i1 @"_ZN4core3fmt3num55_$LT$impl$u20$core..fmt..UpperHex$u20$for$u20$usize$GT$3fmt17h7952cbcb86551406E"(ptr align 8 %self, ptr align 8 %f), !dbg !2136
  %9 = zext i1 %8 to i8, !dbg !2136
  store i8 %9, ptr %_0, align 1, !dbg !2136
  br label %bb5, !dbg !2136

bb5:                                              ; preds = %bb1, %bb3, %bb4
  %10 = load i8, ptr %_0, align 1, !dbg !2137, !range !810, !noundef !23
  %11 = trunc i8 %10 to i1, !dbg !2137
  ret i1 %11, !dbg !2137
}

; core::fmt::Arguments::new_v1
; Function Attrs: inlinehint nonlazybind uwtable
define internal void @_ZN4core3fmt9Arguments6new_v117hdd36c8400921d189E(ptr sret(%"core::fmt::Arguments<'_>") align 8 %_0, ptr align 8 %pieces.0, i64 %pieces.1, ptr align 8 %args.0, i64 %args.1) unnamed_addr #0 !dbg !2138 {
start:
  %pieces.dbg.spill1 = alloca { ptr, i64 }, align 8
  %args.dbg.spill = alloca { ptr, i64 }, align 8
  %pieces.dbg.spill = alloca { ptr, i64 }, align 8
  %_15 = alloca { ptr, i64 }, align 8
  %_13 = alloca { ptr, i64 }, align 8
  %_11 = alloca %"core::fmt::Arguments<'_>", align 8
  %0 = getelementptr inbounds { ptr, i64 }, ptr %pieces.dbg.spill, i32 0, i32 0
  store ptr %pieces.0, ptr %0, align 8
  %1 = getelementptr inbounds { ptr, i64 }, ptr %pieces.dbg.spill, i32 0, i32 1
  store i64 %pieces.1, ptr %1, align 8
  call void @llvm.dbg.declare(metadata ptr %pieces.dbg.spill, metadata !2143, metadata !DIExpression()), !dbg !2145
  %2 = getelementptr inbounds { ptr, i64 }, ptr %args.dbg.spill, i32 0, i32 0
  store ptr %args.0, ptr %2, align 8
  %3 = getelementptr inbounds { ptr, i64 }, ptr %args.dbg.spill, i32 0, i32 1
  store i64 %args.1, ptr %3, align 8
  call void @llvm.dbg.declare(metadata ptr %args.dbg.spill, metadata !2144, metadata !DIExpression()), !dbg !2146
  %_3 = icmp ult i64 %pieces.1, %args.1, !dbg !2147
  br i1 %_3, label %bb1, label %bb2, !dbg !2147

bb2:                                              ; preds = %start
  %_8 = add i64 %args.1, 1, !dbg !2148
  %_6 = icmp ugt i64 %pieces.1, %_8, !dbg !2149
  br i1 %_6, label %bb3, label %bb4, !dbg !2149

bb1:                                              ; preds = %start
  br label %bb3, !dbg !2150

bb4:                                              ; preds = %bb2
  store ptr null, ptr %_13, align 8, !dbg !2151
  %4 = getelementptr inbounds { ptr, i64 }, ptr %_0, i32 0, i32 0, !dbg !2152
  store ptr %pieces.0, ptr %4, align 8, !dbg !2152
  %5 = getelementptr inbounds { ptr, i64 }, ptr %_0, i32 0, i32 1, !dbg !2152
  store i64 %pieces.1, ptr %5, align 8, !dbg !2152
  %6 = getelementptr inbounds { ptr, i64 }, ptr %_13, i32 0, i32 0, !dbg !2152
  %7 = load ptr, ptr %6, align 8, !dbg !2152, !align !935, !noundef !23
  %8 = getelementptr inbounds { ptr, i64 }, ptr %_13, i32 0, i32 1, !dbg !2152
  %9 = load i64, ptr %8, align 8, !dbg !2152
  %10 = getelementptr inbounds %"core::fmt::Arguments<'_>", ptr %_0, i32 0, i32 2, !dbg !2152
  %11 = getelementptr inbounds { ptr, i64 }, ptr %10, i32 0, i32 0, !dbg !2152
  store ptr %7, ptr %11, align 8, !dbg !2152
  %12 = getelementptr inbounds { ptr, i64 }, ptr %10, i32 0, i32 1, !dbg !2152
  store i64 %9, ptr %12, align 8, !dbg !2152
  %13 = getelementptr inbounds %"core::fmt::Arguments<'_>", ptr %_0, i32 0, i32 1, !dbg !2152
  %14 = getelementptr inbounds { ptr, i64 }, ptr %13, i32 0, i32 0, !dbg !2152
  store ptr %args.0, ptr %14, align 8, !dbg !2152
  %15 = getelementptr inbounds { ptr, i64 }, ptr %13, i32 0, i32 1, !dbg !2152
  store i64 %args.1, ptr %15, align 8, !dbg !2152
  ret void, !dbg !2153

bb3:                                              ; preds = %bb1, %bb2
  %16 = getelementptr inbounds { ptr, i64 }, ptr %pieces.dbg.spill1, i32 0, i32 0, !dbg !2154
  store ptr @alloc_560206a49c61adca6f3f0639a12632eb, ptr %16, align 8, !dbg !2154
  %17 = getelementptr inbounds { ptr, i64 }, ptr %pieces.dbg.spill1, i32 0, i32 1, !dbg !2154
  store i64 1, ptr %17, align 8, !dbg !2154
  call void @llvm.dbg.declare(metadata ptr %pieces.dbg.spill1, metadata !2155, metadata !DIExpression()), !dbg !2162
  store ptr null, ptr %_15, align 8, !dbg !2165
  %18 = getelementptr inbounds { ptr, i64 }, ptr %_11, i32 0, i32 0, !dbg !2166
  store ptr @alloc_560206a49c61adca6f3f0639a12632eb, ptr %18, align 8, !dbg !2166
  %19 = getelementptr inbounds { ptr, i64 }, ptr %_11, i32 0, i32 1, !dbg !2166
  store i64 1, ptr %19, align 8, !dbg !2166
  %20 = getelementptr inbounds { ptr, i64 }, ptr %_15, i32 0, i32 0, !dbg !2166
  %21 = load ptr, ptr %20, align 8, !dbg !2166, !align !935, !noundef !23
  %22 = getelementptr inbounds { ptr, i64 }, ptr %_15, i32 0, i32 1, !dbg !2166
  %23 = load i64, ptr %22, align 8, !dbg !2166
  %24 = getelementptr inbounds %"core::fmt::Arguments<'_>", ptr %_11, i32 0, i32 2, !dbg !2166
  %25 = getelementptr inbounds { ptr, i64 }, ptr %24, i32 0, i32 0, !dbg !2166
  store ptr %21, ptr %25, align 8, !dbg !2166
  %26 = getelementptr inbounds { ptr, i64 }, ptr %24, i32 0, i32 1, !dbg !2166
  store i64 %23, ptr %26, align 8, !dbg !2166
  %27 = getelementptr inbounds %"core::fmt::Arguments<'_>", ptr %_11, i32 0, i32 1, !dbg !2166
  %28 = getelementptr inbounds { ptr, i64 }, ptr %27, i32 0, i32 0, !dbg !2166
  store ptr @alloc_513570631223a12912d85da2bec3b15a, ptr %28, align 8, !dbg !2166
  %29 = getelementptr inbounds { ptr, i64 }, ptr %27, i32 0, i32 1, !dbg !2166
  store i64 0, ptr %29, align 8, !dbg !2166
; call core::panicking::panic_fmt
  call void @_ZN4core9panicking9panic_fmt17hbf0e066aabfa482cE(ptr align 8 %_11, ptr align 8 @alloc_b3a1ae5691ce283efab06be3afc2c025) #18, !dbg !2167
  unreachable, !dbg !2167
}

; core::fmt::Arguments::new_const
; Function Attrs: inlinehint nonlazybind uwtable
define internal void @_ZN4core3fmt9Arguments9new_const17h183ea233e80b16f6E(ptr sret(%"core::fmt::Arguments<'_>") align 8 %_0, ptr align 8 %pieces.0, i64 %pieces.1) unnamed_addr #0 !dbg !2168 {
start:
  %pieces.dbg.spill = alloca { ptr, i64 }, align 8
  %_7 = alloca { ptr, i64 }, align 8
  %_5 = alloca %"core::fmt::Arguments<'_>", align 8
  %0 = getelementptr inbounds { ptr, i64 }, ptr %pieces.dbg.spill, i32 0, i32 0
  store ptr %pieces.0, ptr %0, align 8
  %1 = getelementptr inbounds { ptr, i64 }, ptr %pieces.dbg.spill, i32 0, i32 1
  store i64 %pieces.1, ptr %1, align 8
  call void @llvm.dbg.declare(metadata ptr %pieces.dbg.spill, metadata !2170, metadata !DIExpression()), !dbg !2171
  %_2 = icmp ugt i64 %pieces.1, 1, !dbg !2172
  br i1 %_2, label %bb1, label %bb3, !dbg !2172

bb3:                                              ; preds = %start
  store ptr null, ptr %_7, align 8, !dbg !2173
  %2 = getelementptr inbounds { ptr, i64 }, ptr %_0, i32 0, i32 0, !dbg !2174
  store ptr %pieces.0, ptr %2, align 8, !dbg !2174
  %3 = getelementptr inbounds { ptr, i64 }, ptr %_0, i32 0, i32 1, !dbg !2174
  store i64 %pieces.1, ptr %3, align 8, !dbg !2174
  %4 = getelementptr inbounds { ptr, i64 }, ptr %_7, i32 0, i32 0, !dbg !2174
  %5 = load ptr, ptr %4, align 8, !dbg !2174, !align !935, !noundef !23
  %6 = getelementptr inbounds { ptr, i64 }, ptr %_7, i32 0, i32 1, !dbg !2174
  %7 = load i64, ptr %6, align 8, !dbg !2174
  %8 = getelementptr inbounds %"core::fmt::Arguments<'_>", ptr %_0, i32 0, i32 2, !dbg !2174
  %9 = getelementptr inbounds { ptr, i64 }, ptr %8, i32 0, i32 0, !dbg !2174
  store ptr %5, ptr %9, align 8, !dbg !2174
  %10 = getelementptr inbounds { ptr, i64 }, ptr %8, i32 0, i32 1, !dbg !2174
  store i64 %7, ptr %10, align 8, !dbg !2174
  %11 = getelementptr inbounds %"core::fmt::Arguments<'_>", ptr %_0, i32 0, i32 1, !dbg !2174
  %12 = getelementptr inbounds { ptr, i64 }, ptr %11, i32 0, i32 0, !dbg !2174
  store ptr @alloc_513570631223a12912d85da2bec3b15a, ptr %12, align 8, !dbg !2174
  %13 = getelementptr inbounds { ptr, i64 }, ptr %11, i32 0, i32 1, !dbg !2174
  store i64 0, ptr %13, align 8, !dbg !2174
  ret void, !dbg !2175

bb1:                                              ; preds = %start
; call core::fmt::Arguments::new_const
  call void @_ZN4core3fmt9Arguments9new_const17h183ea233e80b16f6E(ptr sret(%"core::fmt::Arguments<'_>") align 8 %_5, ptr align 8 @alloc_560206a49c61adca6f3f0639a12632eb, i64 1), !dbg !2176
; call core::panicking::panic_fmt
  call void @_ZN4core9panicking9panic_fmt17hbf0e066aabfa482cE(ptr align 8 %_5, ptr align 8 @alloc_976e565e678feda535b12b38ec327561) #18, !dbg !2176
  unreachable, !dbg !2176
}

; core::ops::function::FnOnce::call_once{{vtable.shim}}
; Function Attrs: inlinehint nonlazybind uwtable
define internal i32 @"_ZN4core3ops8function6FnOnce40call_once$u7b$$u7b$vtable.shim$u7d$$u7d$17h4b0a9894e24ec55cE"(ptr %_1) unnamed_addr #0 !dbg !2177 {
start:
  %_1.dbg.spill = alloca ptr, align 8
  %_2 = alloca {}, align 1
  store ptr %_1, ptr %_1.dbg.spill, align 8
  call void @llvm.dbg.declare(metadata ptr %_1.dbg.spill, metadata !2185, metadata !DIExpression()), !dbg !2190
  call void @llvm.dbg.declare(metadata ptr %_2, metadata !2186, metadata !DIExpression()), !dbg !2190
  %0 = load ptr, ptr %_1, align 8, !dbg !2190, !nonnull !23, !noundef !23
; call core::ops::function::FnOnce::call_once
  %_0 = call i32 @_ZN4core3ops8function6FnOnce9call_once17h690a18a21d50a8c9E(ptr %0), !dbg !2190
  ret i32 %_0, !dbg !2190
}

; core::ops::function::FnOnce::call_once
; Function Attrs: inlinehint nonlazybind uwtable
define internal i32 @_ZN4core3ops8function6FnOnce9call_once17h690a18a21d50a8c9E(ptr %0) unnamed_addr #0 personality ptr @rust_eh_personality !dbg !2191 {
start:
  %1 = alloca { ptr, i32 }, align 8
  %_2 = alloca {}, align 1
  %_1 = alloca ptr, align 8
  store ptr %0, ptr %_1, align 8
  call void @llvm.dbg.declare(metadata ptr %_1, metadata !2195, metadata !DIExpression()), !dbg !2197
  call void @llvm.dbg.declare(metadata ptr %_2, metadata !2196, metadata !DIExpression()), !dbg !2197
; invoke std::rt::lang_start::{{closure}}
  %_0 = invoke i32 @"_ZN3std2rt10lang_start28_$u7b$$u7b$closure$u7d$$u7d$17hd2f9c3e545533eacE"(ptr align 8 %_1)
          to label %bb1 unwind label %cleanup, !dbg !2197

bb3:                                              ; preds = %cleanup
  %2 = load ptr, ptr %1, align 8, !dbg !2197, !noundef !23
  %3 = getelementptr inbounds { ptr, i32 }, ptr %1, i32 0, i32 1, !dbg !2197
  %4 = load i32, ptr %3, align 8, !dbg !2197, !noundef !23
  %5 = insertvalue { ptr, i32 } poison, ptr %2, 0, !dbg !2197
  %6 = insertvalue { ptr, i32 } %5, i32 %4, 1, !dbg !2197
  resume { ptr, i32 } %6, !dbg !2197

cleanup:                                          ; preds = %start
  %7 = landingpad { ptr, i32 }
          cleanup
  %8 = extractvalue { ptr, i32 } %7, 0
  %9 = extractvalue { ptr, i32 } %7, 1
  %10 = getelementptr inbounds { ptr, i32 }, ptr %1, i32 0, i32 0
  store ptr %8, ptr %10, align 8
  %11 = getelementptr inbounds { ptr, i32 }, ptr %1, i32 0, i32 1
  store i32 %9, ptr %11, align 8
  br label %bb3

bb1:                                              ; preds = %start
  ret i32 %_0, !dbg !2197
}

; core::ops::function::FnOnce::call_once
; Function Attrs: inlinehint nonlazybind uwtable
define internal void @_ZN4core3ops8function6FnOnce9call_once17ha24bdd2c20d0b88eE(ptr %_1) unnamed_addr #0 !dbg !2198 {
start:
  %_1.dbg.spill = alloca ptr, align 8
  %_2 = alloca {}, align 1
  store ptr %_1, ptr %_1.dbg.spill, align 8
  call void @llvm.dbg.declare(metadata ptr %_1.dbg.spill, metadata !2200, metadata !DIExpression()), !dbg !2204
  call void @llvm.dbg.declare(metadata ptr %_2, metadata !2201, metadata !DIExpression()), !dbg !2204
  call void %_1(), !dbg !2204
  ret void, !dbg !2204
}

; core::ops::function::FnOnce::call_once
; Function Attrs: inlinehint nonlazybind uwtable
define internal i8 @_ZN4core3ops8function6FnOnce9call_once17hdc1882a264ba2c58E(ptr align 8 %0, ptr align 8 %1) unnamed_addr #0 !dbg !2205 {
start:
  %_1.dbg.spill = alloca {}, align 1
  %_2 = alloca { ptr, ptr }, align 8
  store ptr %0, ptr %_2, align 8
  %2 = getelementptr inbounds { ptr, ptr }, ptr %_2, i32 0, i32 1
  store ptr %1, ptr %2, align 8
  call void @llvm.dbg.declare(metadata ptr %_1.dbg.spill, metadata !2209, metadata !DIExpression()), !dbg !2218
  call void @llvm.dbg.declare(metadata ptr %_2, metadata !2210, metadata !DIExpression()), !dbg !2218
  %3 = load ptr, ptr %_2, align 8, !dbg !2218, !nonnull !23, !align !935, !noundef !23
  %4 = getelementptr inbounds { ptr, ptr }, ptr %_2, i32 0, i32 1, !dbg !2218
  %5 = load ptr, ptr %4, align 8, !dbg !2218, !nonnull !23, !align !935, !noundef !23
; call core::cmp::impls::<impl core::cmp::Ord for usize>::cmp
  %_0 = call i8 @"_ZN4core3cmp5impls50_$LT$impl$u20$core..cmp..Ord$u20$for$u20$usize$GT$3cmp17he7bcb83e65a1bdefE"(ptr align 8 %3, ptr align 8 %5), !dbg !2218, !range !2081
  ret i8 %_0, !dbg !2218
}

; core::ptr::drop_in_place<std::io::error::ErrorData<alloc::boxed::Box<std::io::error::Custom>>>
; Function Attrs: nonlazybind uwtable
define internal void @"_ZN4core3ptr101drop_in_place$LT$std..io..error..ErrorData$LT$alloc..boxed..Box$LT$std..io..error..Custom$GT$$GT$$GT$17h4d68a934cfc3d269E"(ptr align 8 %_1) unnamed_addr #1 !dbg !2219 {
start:
  %_1.dbg.spill = alloca ptr, align 8
  store ptr %_1, ptr %_1.dbg.spill, align 8
  call void @llvm.dbg.declare(metadata ptr %_1.dbg.spill, metadata !2224, metadata !DIExpression()), !dbg !2225
  %0 = load i8, ptr %_1, align 8, !dbg !2225, !range !2226, !noundef !23
  %_2 = zext i8 %0 to i64, !dbg !2225
  switch i64 %_2, label %bb2 [
    i64 0, label %bb1
    i64 1, label %bb1
    i64 2, label %bb1
  ], !dbg !2225

bb2:                                              ; preds = %start
  %1 = getelementptr inbounds %"std::io::error::ErrorData<alloc::boxed::Box<std::io::error::Custom>>::Custom", ptr %_1, i32 0, i32 1, !dbg !2225
; call core::ptr::drop_in_place<alloc::boxed::Box<std::io::error::Custom>>
  call void @"_ZN4core3ptr68drop_in_place$LT$alloc..boxed..Box$LT$std..io..error..Custom$GT$$GT$17h7034e4647b9a6b3bE"(ptr align 8 %1), !dbg !2225
  br label %bb1, !dbg !2225

bb1:                                              ; preds = %bb2, %start, %start, %start
  ret void, !dbg !2225
}

; core::ptr::drop_in_place<alloc::boxed::Box<dyn core::error::Error+core::marker::Send+core::marker::Sync>>
; Function Attrs: nonlazybind uwtable
define internal void @"_ZN4core3ptr118drop_in_place$LT$alloc..boxed..Box$LT$dyn$u20$core..error..Error$u2b$core..marker..Send$u2b$core..marker..Sync$GT$$GT$17h925543c3b8b5b450E"(ptr align 8 %_1) unnamed_addr #1 personality ptr @rust_eh_personality !dbg !2227 {
start:
  %0 = alloca { ptr, i32 }, align 8
  %_1.dbg.spill = alloca ptr, align 8
  store ptr %_1, ptr %_1.dbg.spill, align 8
  call void @llvm.dbg.declare(metadata ptr %_1.dbg.spill, metadata !2232, metadata !DIExpression()), !dbg !2235
  %1 = getelementptr inbounds { ptr, ptr }, ptr %_1, i32 0, i32 0, !dbg !2235
  %_6.0 = load ptr, ptr %1, align 8, !dbg !2235, !noundef !23
  %2 = getelementptr inbounds { ptr, ptr }, ptr %_1, i32 0, i32 1, !dbg !2235
  %_6.1 = load ptr, ptr %2, align 8, !dbg !2235, !nonnull !23, !align !935, !noundef !23
  %3 = getelementptr inbounds ptr, ptr %_6.1, i64 0, !dbg !2235
  %4 = load ptr, ptr %3, align 8, !dbg !2235, !invariant.load !23, !nonnull !23
  invoke void %4(ptr align 1 %_6.0)
          to label %bb3 unwind label %cleanup, !dbg !2235

bb4:                                              ; preds = %cleanup
; invoke <alloc::boxed::Box<T,A> as core::ops::drop::Drop>::drop
  invoke void @"_ZN72_$LT$alloc..boxed..Box$LT$T$C$A$GT$$u20$as$u20$core..ops..drop..Drop$GT$4drop17h9c1272fdbb02920fE"(ptr align 8 %_1) #19
          to label %bb1 unwind label %terminate, !dbg !2235

cleanup:                                          ; preds = %start
  %5 = landingpad { ptr, i32 }
          cleanup
  %6 = extractvalue { ptr, i32 } %5, 0
  %7 = extractvalue { ptr, i32 } %5, 1
  %8 = getelementptr inbounds { ptr, i32 }, ptr %0, i32 0, i32 0
  store ptr %6, ptr %8, align 8
  %9 = getelementptr inbounds { ptr, i32 }, ptr %0, i32 0, i32 1
  store i32 %7, ptr %9, align 8
  br label %bb4

bb3:                                              ; preds = %start
; call <alloc::boxed::Box<T,A> as core::ops::drop::Drop>::drop
  call void @"_ZN72_$LT$alloc..boxed..Box$LT$T$C$A$GT$$u20$as$u20$core..ops..drop..Drop$GT$4drop17h9c1272fdbb02920fE"(ptr align 8 %_1), !dbg !2235
  ret void, !dbg !2235

terminate:                                        ; preds = %bb4
  %10 = landingpad { ptr, i32 }
          filter [0 x ptr] zeroinitializer
  %11 = extractvalue { ptr, i32 } %10, 0
  %12 = extractvalue { ptr, i32 } %10, 1
; call core::panicking::panic_in_cleanup
  call void @_ZN4core9panicking16panic_in_cleanup17hd44bb2114362504eE() #20, !dbg !2235
  unreachable, !dbg !2235

bb1:                                              ; preds = %bb4
  %13 = load ptr, ptr %0, align 8, !dbg !2235, !noundef !23
  %14 = getelementptr inbounds { ptr, i32 }, ptr %0, i32 0, i32 1, !dbg !2235
  %15 = load i32, ptr %14, align 8, !dbg !2235, !noundef !23
  %16 = insertvalue { ptr, i32 } poison, ptr %13, 0, !dbg !2235
  %17 = insertvalue { ptr, i32 } %16, i32 %15, 1, !dbg !2235
  resume { ptr, i32 } %17, !dbg !2235
}

; core::ptr::drop_in_place<<alloc::vec::into_iter::IntoIter<T,A> as core::ops::drop::Drop>::drop::DropGuard<std::ffi::os_str::OsString,alloc::alloc::Global>>
; Function Attrs: nonlazybind uwtable
define internal void @"_ZN4core3ptr180drop_in_place$LT$$LT$alloc..vec..into_iter..IntoIter$LT$T$C$A$GT$$u20$as$u20$core..ops..drop..Drop$GT$..drop..DropGuard$LT$std..ffi..os_str..OsString$C$alloc..alloc..Global$GT$$GT$17h0b0e0a264d6c6da8E"(ptr align 8 %_1) unnamed_addr #1 !dbg !2236 {
start:
  %_1.dbg.spill = alloca ptr, align 8
  store ptr %_1, ptr %_1.dbg.spill, align 8
  call void @llvm.dbg.declare(metadata ptr %_1.dbg.spill, metadata !2241, metadata !DIExpression()), !dbg !2244
; call <<alloc::vec::into_iter::IntoIter<T,A> as core::ops::drop::Drop>::drop::DropGuard<T,A> as core::ops::drop::Drop>::drop
  call void @"_ZN157_$LT$$LT$alloc..vec..into_iter..IntoIter$LT$T$C$A$GT$$u20$as$u20$core..ops..drop..Drop$GT$..drop..DropGuard$LT$T$C$A$GT$$u20$as$u20$core..ops..drop..Drop$GT$4drop17hd287c0eb16f89d7aE"(ptr align 8 %_1), !dbg !2244
  ret void, !dbg !2244
}

; core::ptr::drop_in_place<&usize>
; Function Attrs: inlinehint nonlazybind uwtable
define internal void @"_ZN4core3ptr30drop_in_place$LT$$RF$usize$GT$17h32eb636796457be8E"(ptr align 8 %_1) unnamed_addr #0 !dbg !2245 {
start:
  %_1.dbg.spill = alloca ptr, align 8
  store ptr %_1, ptr %_1.dbg.spill, align 8
  call void @llvm.dbg.declare(metadata ptr %_1.dbg.spill, metadata !2250, metadata !DIExpression()), !dbg !2253
  ret void, !dbg !2253
}

; core::ptr::drop_in_place<std::env::Args>
; Function Attrs: nonlazybind uwtable
define internal void @"_ZN4core3ptr35drop_in_place$LT$std..env..Args$GT$17hbadb03ed3c95ad10E"(ptr align 8 %_1) unnamed_addr #1 !dbg !2254 {
start:
  %_1.dbg.spill = alloca ptr, align 8
  store ptr %_1, ptr %_1.dbg.spill, align 8
  call void @llvm.dbg.declare(metadata ptr %_1.dbg.spill, metadata !2259, metadata !DIExpression()), !dbg !2262
; call core::ptr::drop_in_place<std::env::ArgsOs>
  call void @"_ZN4core3ptr37drop_in_place$LT$std..env..ArgsOs$GT$17h507d89c88e0a2bb2E"(ptr align 8 %_1), !dbg !2262
  ret void, !dbg !2262
}

; core::ptr::drop_in_place<std::env::ArgsOs>
; Function Attrs: nonlazybind uwtable
define internal void @"_ZN4core3ptr37drop_in_place$LT$std..env..ArgsOs$GT$17h507d89c88e0a2bb2E"(ptr align 8 %_1) unnamed_addr #1 !dbg !2263 {
start:
  %_1.dbg.spill = alloca ptr, align 8
  store ptr %_1, ptr %_1.dbg.spill, align 8
  call void @llvm.dbg.declare(metadata ptr %_1.dbg.spill, metadata !2268, metadata !DIExpression()), !dbg !2271
; call core::ptr::drop_in_place<std::sys::unix::args::Args>
  call void @"_ZN4core3ptr47drop_in_place$LT$std..sys..unix..args..Args$GT$17h1d7f3fef152f18d0E"(ptr align 8 %_1), !dbg !2271
  ret void, !dbg !2271
}

; core::ptr::drop_in_place<alloc::string::String>
; Function Attrs: nonlazybind uwtable
define internal void @"_ZN4core3ptr42drop_in_place$LT$alloc..string..String$GT$17hc94d05d46e47316eE"(ptr align 8 %_1) unnamed_addr #1 !dbg !2272 {
start:
  %_1.dbg.spill = alloca ptr, align 8
  store ptr %_1, ptr %_1.dbg.spill, align 8
  call void @llvm.dbg.declare(metadata ptr %_1.dbg.spill, metadata !2276, metadata !DIExpression()), !dbg !2277
; call core::ptr::drop_in_place<alloc::vec::Vec<u8>>
  call void @"_ZN4core3ptr46drop_in_place$LT$alloc..vec..Vec$LT$u8$GT$$GT$17hdf34be116efcbf1bE"(ptr align 8 %_1), !dbg !2277
  ret void, !dbg !2277
}

; core::ptr::drop_in_place<std::io::error::Error>
; Function Attrs: nonlazybind uwtable
define internal void @"_ZN4core3ptr42drop_in_place$LT$std..io..error..Error$GT$17h90335012d3925325E"(ptr align 8 %_1) unnamed_addr #1 !dbg !2278 {
start:
  %_1.dbg.spill = alloca ptr, align 8
  store ptr %_1, ptr %_1.dbg.spill, align 8
  call void @llvm.dbg.declare(metadata ptr %_1.dbg.spill, metadata !2283, metadata !DIExpression()), !dbg !2284
; call core::ptr::drop_in_place<std::io::error::repr_bitpacked::Repr>
  call void @"_ZN4core3ptr57drop_in_place$LT$std..io..error..repr_bitpacked..Repr$GT$17h30aaac5ffb080da7E"(ptr align 8 %_1), !dbg !2284
  ret void, !dbg !2284
}

; core::ptr::drop_in_place<std::io::error::Custom>
; Function Attrs: nonlazybind uwtable
define internal void @"_ZN4core3ptr43drop_in_place$LT$std..io..error..Custom$GT$17h8cca29dc937ddf90E"(ptr align 8 %_1) unnamed_addr #1 !dbg !2285 {
start:
  %_1.dbg.spill = alloca ptr, align 8
  store ptr %_1, ptr %_1.dbg.spill, align 8
  call void @llvm.dbg.declare(metadata ptr %_1.dbg.spill, metadata !2289, metadata !DIExpression()), !dbg !2292
; call core::ptr::drop_in_place<alloc::boxed::Box<dyn core::error::Error+core::marker::Send+core::marker::Sync>>
  call void @"_ZN4core3ptr118drop_in_place$LT$alloc..boxed..Box$LT$dyn$u20$core..error..Error$u2b$core..marker..Send$u2b$core..marker..Sync$GT$$GT$17h925543c3b8b5b450E"(ptr align 8 %_1), !dbg !2292
  ret void, !dbg !2292
}

; core::ptr::drop_in_place<&std::io::error::Error>
; Function Attrs: inlinehint nonlazybind uwtable
define internal void @"_ZN4core3ptr46drop_in_place$LT$$RF$std..io..error..Error$GT$17hb8a51ab3840938f3E"(ptr align 8 %_1) unnamed_addr #0 !dbg !2293 {
start:
  %_1.dbg.spill = alloca ptr, align 8
  store ptr %_1, ptr %_1.dbg.spill, align 8
  call void @llvm.dbg.declare(metadata ptr %_1.dbg.spill, metadata !2298, metadata !DIExpression()), !dbg !2301
  ret void, !dbg !2301
}

; core::ptr::drop_in_place<alloc::vec::Vec<u8>>
; Function Attrs: nonlazybind uwtable
define internal void @"_ZN4core3ptr46drop_in_place$LT$alloc..vec..Vec$LT$u8$GT$$GT$17hdf34be116efcbf1bE"(ptr align 8 %_1) unnamed_addr #1 personality ptr @rust_eh_personality !dbg !2302 {
start:
  %0 = alloca { ptr, i32 }, align 8
  %_1.dbg.spill = alloca ptr, align 8
  store ptr %_1, ptr %_1.dbg.spill, align 8
  call void @llvm.dbg.declare(metadata ptr %_1.dbg.spill, metadata !2307, metadata !DIExpression()), !dbg !2310
; invoke <alloc::vec::Vec<T,A> as core::ops::drop::Drop>::drop
  invoke void @"_ZN70_$LT$alloc..vec..Vec$LT$T$C$A$GT$$u20$as$u20$core..ops..drop..Drop$GT$4drop17hde6dcd5155b43aa7E"(ptr align 8 %_1)
          to label %bb4 unwind label %cleanup, !dbg !2310

bb3:                                              ; preds = %cleanup
; invoke core::ptr::drop_in_place<alloc::raw_vec::RawVec<u8>>
  invoke void @"_ZN4core3ptr53drop_in_place$LT$alloc..raw_vec..RawVec$LT$u8$GT$$GT$17he929210f999ad204E"(ptr align 8 %_1) #19
          to label %bb1 unwind label %terminate, !dbg !2310

cleanup:                                          ; preds = %start
  %1 = landingpad { ptr, i32 }
          cleanup
  %2 = extractvalue { ptr, i32 } %1, 0
  %3 = extractvalue { ptr, i32 } %1, 1
  %4 = getelementptr inbounds { ptr, i32 }, ptr %0, i32 0, i32 0
  store ptr %2, ptr %4, align 8
  %5 = getelementptr inbounds { ptr, i32 }, ptr %0, i32 0, i32 1
  store i32 %3, ptr %5, align 8
  br label %bb3

bb4:                                              ; preds = %start
; call core::ptr::drop_in_place<alloc::raw_vec::RawVec<u8>>
  call void @"_ZN4core3ptr53drop_in_place$LT$alloc..raw_vec..RawVec$LT$u8$GT$$GT$17he929210f999ad204E"(ptr align 8 %_1), !dbg !2310
  ret void, !dbg !2310

terminate:                                        ; preds = %bb3
  %6 = landingpad { ptr, i32 }
          filter [0 x ptr] zeroinitializer
  %7 = extractvalue { ptr, i32 } %6, 0
  %8 = extractvalue { ptr, i32 } %6, 1
; call core::panicking::panic_in_cleanup
  call void @_ZN4core9panicking16panic_in_cleanup17hd44bb2114362504eE() #20, !dbg !2310
  unreachable, !dbg !2310

bb1:                                              ; preds = %bb3
  %9 = load ptr, ptr %0, align 8, !dbg !2310, !noundef !23
  %10 = getelementptr inbounds { ptr, i32 }, ptr %0, i32 0, i32 1, !dbg !2310
  %11 = load i32, ptr %10, align 8, !dbg !2310, !noundef !23
  %12 = insertvalue { ptr, i32 } poison, ptr %9, 0, !dbg !2310
  %13 = insertvalue { ptr, i32 } %12, i32 %11, 1, !dbg !2310
  resume { ptr, i32 } %13, !dbg !2310
}

; core::ptr::drop_in_place<std::ffi::os_str::OsString>
; Function Attrs: nonlazybind uwtable
define internal void @"_ZN4core3ptr47drop_in_place$LT$std..ffi..os_str..OsString$GT$17he9d21c34f4065d6dE"(ptr align 8 %_1) unnamed_addr #1 !dbg !2311 {
start:
  %_1.dbg.spill = alloca ptr, align 8
  store ptr %_1, ptr %_1.dbg.spill, align 8
  call void @llvm.dbg.declare(metadata ptr %_1.dbg.spill, metadata !2313, metadata !DIExpression()), !dbg !2314
; call core::ptr::drop_in_place<std::sys::unix::os_str::Buf>
  call void @"_ZN4core3ptr48drop_in_place$LT$std..sys..unix..os_str..Buf$GT$17h30ce694b3c52af00E"(ptr align 8 %_1), !dbg !2314
  ret void, !dbg !2314
}

; core::ptr::drop_in_place<std::sys::unix::args::Args>
; Function Attrs: nonlazybind uwtable
define internal void @"_ZN4core3ptr47drop_in_place$LT$std..sys..unix..args..Args$GT$17h1d7f3fef152f18d0E"(ptr align 8 %_1) unnamed_addr #1 !dbg !2315 {
start:
  %_1.dbg.spill = alloca ptr, align 8
  store ptr %_1, ptr %_1.dbg.spill, align 8
  call void @llvm.dbg.declare(metadata ptr %_1.dbg.spill, metadata !2320, metadata !DIExpression()), !dbg !2323
; call core::ptr::drop_in_place<alloc::vec::into_iter::IntoIter<std::ffi::os_str::OsString>>
  call void @"_ZN4core3ptr86drop_in_place$LT$alloc..vec..into_iter..IntoIter$LT$std..ffi..os_str..OsString$GT$$GT$17hd462600a87d28070E"(ptr align 8 %_1), !dbg !2323
  ret void, !dbg !2323
}

; core::ptr::drop_in_place<std::sys::unix::os_str::Buf>
; Function Attrs: nonlazybind uwtable
define internal void @"_ZN4core3ptr48drop_in_place$LT$std..sys..unix..os_str..Buf$GT$17h30ce694b3c52af00E"(ptr align 8 %_1) unnamed_addr #1 !dbg !2324 {
start:
  %_1.dbg.spill = alloca ptr, align 8
  store ptr %_1, ptr %_1.dbg.spill, align 8
  call void @llvm.dbg.declare(metadata ptr %_1.dbg.spill, metadata !2329, metadata !DIExpression()), !dbg !2332
; call core::ptr::drop_in_place<alloc::vec::Vec<u8>>
  call void @"_ZN4core3ptr46drop_in_place$LT$alloc..vec..Vec$LT$u8$GT$$GT$17hdf34be116efcbf1bE"(ptr align 8 %_1), !dbg !2332
  ret void, !dbg !2332
}

; core::ptr::drop_in_place<[alloc::string::String]>
; Function Attrs: nonlazybind uwtable
define internal void @"_ZN4core3ptr52drop_in_place$LT$$u5b$alloc..string..String$u5d$$GT$17hde4a33838fc68d6aE"(ptr align 8 %_1.0, i64 %_1.1) unnamed_addr #1 personality ptr @rust_eh_personality !dbg !2333 {
start:
  %0 = alloca { ptr, i32 }, align 8
  %_1.dbg.spill = alloca { ptr, i64 }, align 8
  %_3 = alloca i64, align 8
  %1 = getelementptr inbounds { ptr, i64 }, ptr %_1.dbg.spill, i32 0, i32 0
  store ptr %_1.0, ptr %1, align 8
  %2 = getelementptr inbounds { ptr, i64 }, ptr %_1.dbg.spill, i32 0, i32 1
  store i64 %_1.1, ptr %2, align 8
  call void @llvm.dbg.declare(metadata ptr %_1.dbg.spill, metadata !2342, metadata !DIExpression()), !dbg !2343
  store i64 0, ptr %_3, align 8, !dbg !2343
  br label %bb6, !dbg !2343

bb6:                                              ; preds = %bb5, %start
  %3 = load i64, ptr %_3, align 8, !dbg !2343, !noundef !23
  %_7 = icmp eq i64 %3, %_1.1, !dbg !2343
  br i1 %_7, label %bb1, label %bb5, !dbg !2343

bb5:                                              ; preds = %bb6
  %4 = load i64, ptr %_3, align 8, !dbg !2343, !noundef !23
  %_6 = getelementptr inbounds [0 x %"alloc::string::String"], ptr %_1.0, i64 0, i64 %4, !dbg !2343
  %5 = load i64, ptr %_3, align 8, !dbg !2343, !noundef !23
  %6 = add i64 %5, 1, !dbg !2343
  store i64 %6, ptr %_3, align 8, !dbg !2343
; invoke core::ptr::drop_in_place<alloc::string::String>
  invoke void @"_ZN4core3ptr42drop_in_place$LT$alloc..string..String$GT$17hc94d05d46e47316eE"(ptr align 8 %_6)
          to label %bb6 unwind label %cleanup, !dbg !2343

bb1:                                              ; preds = %bb6
  ret void, !dbg !2343

bb4:                                              ; preds = %bb3, %cleanup
  %7 = load i64, ptr %_3, align 8, !dbg !2343, !noundef !23
  %_5 = icmp eq i64 %7, %_1.1, !dbg !2343
  br i1 %_5, label %bb2, label %bb3, !dbg !2343

cleanup:                                          ; preds = %bb5
  %8 = landingpad { ptr, i32 }
          cleanup
  %9 = extractvalue { ptr, i32 } %8, 0
  %10 = extractvalue { ptr, i32 } %8, 1
  %11 = getelementptr inbounds { ptr, i32 }, ptr %0, i32 0, i32 0
  store ptr %9, ptr %11, align 8
  %12 = getelementptr inbounds { ptr, i32 }, ptr %0, i32 0, i32 1
  store i32 %10, ptr %12, align 8
  br label %bb4

bb3:                                              ; preds = %bb4
  %13 = load i64, ptr %_3, align 8, !dbg !2343, !noundef !23
  %_4 = getelementptr inbounds [0 x %"alloc::string::String"], ptr %_1.0, i64 0, i64 %13, !dbg !2343
  %14 = load i64, ptr %_3, align 8, !dbg !2343, !noundef !23
  %15 = add i64 %14, 1, !dbg !2343
  store i64 %15, ptr %_3, align 8, !dbg !2343
; invoke core::ptr::drop_in_place<alloc::string::String>
  invoke void @"_ZN4core3ptr42drop_in_place$LT$alloc..string..String$GT$17hc94d05d46e47316eE"(ptr align 8 %_4) #19
          to label %bb4 unwind label %terminate, !dbg !2343

bb2:                                              ; preds = %bb4
  %16 = load ptr, ptr %0, align 8, !dbg !2343, !noundef !23
  %17 = getelementptr inbounds { ptr, i32 }, ptr %0, i32 0, i32 1, !dbg !2343
  %18 = load i32, ptr %17, align 8, !dbg !2343, !noundef !23
  %19 = insertvalue { ptr, i32 } poison, ptr %16, 0, !dbg !2343
  %20 = insertvalue { ptr, i32 } %19, i32 %18, 1, !dbg !2343
  resume { ptr, i32 } %20, !dbg !2343

terminate:                                        ; preds = %bb3
  %21 = landingpad { ptr, i32 }
          filter [0 x ptr] zeroinitializer
  %22 = extractvalue { ptr, i32 } %21, 0
  %23 = extractvalue { ptr, i32 } %21, 1
; call core::panicking::panic_in_cleanup
  call void @_ZN4core9panicking16panic_in_cleanup17hd44bb2114362504eE() #20, !dbg !2343
  unreachable, !dbg !2343
}

; core::ptr::drop_in_place<alloc::raw_vec::RawVec<u8>>
; Function Attrs: nonlazybind uwtable
define internal void @"_ZN4core3ptr53drop_in_place$LT$alloc..raw_vec..RawVec$LT$u8$GT$$GT$17he929210f999ad204E"(ptr align 8 %_1) unnamed_addr #1 !dbg !2344 {
start:
  %_1.dbg.spill = alloca ptr, align 8
  store ptr %_1, ptr %_1.dbg.spill, align 8
  call void @llvm.dbg.declare(metadata ptr %_1.dbg.spill, metadata !2349, metadata !DIExpression()), !dbg !2352
; call <alloc::raw_vec::RawVec<T,A> as core::ops::drop::Drop>::drop
  call void @"_ZN77_$LT$alloc..raw_vec..RawVec$LT$T$C$A$GT$$u20$as$u20$core..ops..drop..Drop$GT$4drop17hf2ac2a71731e94f4E"(ptr align 8 %_1), !dbg !2352
  ret void, !dbg !2352
}

; core::ptr::drop_in_place<[std::ffi::os_str::OsString]>
; Function Attrs: nonlazybind uwtable
define internal void @"_ZN4core3ptr57drop_in_place$LT$$u5b$std..ffi..os_str..OsString$u5d$$GT$17h42487ec6de78cc18E"(ptr align 8 %_1.0, i64 %_1.1) unnamed_addr #1 personality ptr @rust_eh_personality !dbg !2353 {
start:
  %0 = alloca { ptr, i32 }, align 8
  %_1.dbg.spill = alloca { ptr, i64 }, align 8
  %_3 = alloca i64, align 8
  %1 = getelementptr inbounds { ptr, i64 }, ptr %_1.dbg.spill, i32 0, i32 0
  store ptr %_1.0, ptr %1, align 8
  %2 = getelementptr inbounds { ptr, i64 }, ptr %_1.dbg.spill, i32 0, i32 1
  store i64 %_1.1, ptr %2, align 8
  call void @llvm.dbg.declare(metadata ptr %_1.dbg.spill, metadata !2362, metadata !DIExpression()), !dbg !2363
  store i64 0, ptr %_3, align 8, !dbg !2363
  br label %bb6, !dbg !2363

bb6:                                              ; preds = %bb5, %start
  %3 = load i64, ptr %_3, align 8, !dbg !2363, !noundef !23
  %_7 = icmp eq i64 %3, %_1.1, !dbg !2363
  br i1 %_7, label %bb1, label %bb5, !dbg !2363

bb5:                                              ; preds = %bb6
  %4 = load i64, ptr %_3, align 8, !dbg !2363, !noundef !23
  %_6 = getelementptr inbounds [0 x %"std::ffi::os_str::OsString"], ptr %_1.0, i64 0, i64 %4, !dbg !2363
  %5 = load i64, ptr %_3, align 8, !dbg !2363, !noundef !23
  %6 = add i64 %5, 1, !dbg !2363
  store i64 %6, ptr %_3, align 8, !dbg !2363
; invoke core::ptr::drop_in_place<std::ffi::os_str::OsString>
  invoke void @"_ZN4core3ptr47drop_in_place$LT$std..ffi..os_str..OsString$GT$17he9d21c34f4065d6dE"(ptr align 8 %_6)
          to label %bb6 unwind label %cleanup, !dbg !2363

bb1:                                              ; preds = %bb6
  ret void, !dbg !2363

bb4:                                              ; preds = %bb3, %cleanup
  %7 = load i64, ptr %_3, align 8, !dbg !2363, !noundef !23
  %_5 = icmp eq i64 %7, %_1.1, !dbg !2363
  br i1 %_5, label %bb2, label %bb3, !dbg !2363

cleanup:                                          ; preds = %bb5
  %8 = landingpad { ptr, i32 }
          cleanup
  %9 = extractvalue { ptr, i32 } %8, 0
  %10 = extractvalue { ptr, i32 } %8, 1
  %11 = getelementptr inbounds { ptr, i32 }, ptr %0, i32 0, i32 0
  store ptr %9, ptr %11, align 8
  %12 = getelementptr inbounds { ptr, i32 }, ptr %0, i32 0, i32 1
  store i32 %10, ptr %12, align 8
  br label %bb4

bb3:                                              ; preds = %bb4
  %13 = load i64, ptr %_3, align 8, !dbg !2363, !noundef !23
  %_4 = getelementptr inbounds [0 x %"std::ffi::os_str::OsString"], ptr %_1.0, i64 0, i64 %13, !dbg !2363
  %14 = load i64, ptr %_3, align 8, !dbg !2363, !noundef !23
  %15 = add i64 %14, 1, !dbg !2363
  store i64 %15, ptr %_3, align 8, !dbg !2363
; invoke core::ptr::drop_in_place<std::ffi::os_str::OsString>
  invoke void @"_ZN4core3ptr47drop_in_place$LT$std..ffi..os_str..OsString$GT$17he9d21c34f4065d6dE"(ptr align 8 %_4) #19
          to label %bb4 unwind label %terminate, !dbg !2363

bb2:                                              ; preds = %bb4
  %16 = load ptr, ptr %0, align 8, !dbg !2363, !noundef !23
  %17 = getelementptr inbounds { ptr, i32 }, ptr %0, i32 0, i32 1, !dbg !2363
  %18 = load i32, ptr %17, align 8, !dbg !2363, !noundef !23
  %19 = insertvalue { ptr, i32 } poison, ptr %16, 0, !dbg !2363
  %20 = insertvalue { ptr, i32 } %19, i32 %18, 1, !dbg !2363
  resume { ptr, i32 } %20, !dbg !2363

terminate:                                        ; preds = %bb3
  %21 = landingpad { ptr, i32 }
          filter [0 x ptr] zeroinitializer
  %22 = extractvalue { ptr, i32 } %21, 0
  %23 = extractvalue { ptr, i32 } %21, 1
; call core::panicking::panic_in_cleanup
  call void @_ZN4core9panicking16panic_in_cleanup17hd44bb2114362504eE() #20, !dbg !2363
  unreachable, !dbg !2363
}

; core::ptr::drop_in_place<std::io::error::repr_bitpacked::Repr>
; Function Attrs: nonlazybind uwtable
define internal void @"_ZN4core3ptr57drop_in_place$LT$std..io..error..repr_bitpacked..Repr$GT$17h30aaac5ffb080da7E"(ptr align 8 %_1) unnamed_addr #1 !dbg !2364 {
start:
  %_1.dbg.spill = alloca ptr, align 8
  store ptr %_1, ptr %_1.dbg.spill, align 8
  call void @llvm.dbg.declare(metadata ptr %_1.dbg.spill, metadata !2369, metadata !DIExpression()), !dbg !2372
; call <std::io::error::repr_bitpacked::Repr as core::ops::drop::Drop>::drop
  call void @"_ZN78_$LT$std..io..error..repr_bitpacked..Repr$u20$as$u20$core..ops..drop..Drop$GT$4drop17he6d741d141120eb6E"(ptr align 8 %_1), !dbg !2372
  ret void, !dbg !2372
}

; core::ptr::drop_in_place<&core::option::Option<usize>>
; Function Attrs: inlinehint nonlazybind uwtable
define internal void @"_ZN4core3ptr58drop_in_place$LT$$RF$core..option..Option$LT$usize$GT$$GT$17h3350c6e034aa1af6E"(ptr align 8 %_1) unnamed_addr #0 !dbg !2373 {
start:
  %_1.dbg.spill = alloca ptr, align 8
  store ptr %_1, ptr %_1.dbg.spill, align 8
  call void @llvm.dbg.declare(metadata ptr %_1.dbg.spill, metadata !2378, metadata !DIExpression()), !dbg !2381
  ret void, !dbg !2381
}

; core::ptr::drop_in_place<alloc::vec::Vec<alloc::string::String>>
; Function Attrs: nonlazybind uwtable
define internal void @"_ZN4core3ptr65drop_in_place$LT$alloc..vec..Vec$LT$alloc..string..String$GT$$GT$17hf530b0f346202400E"(ptr align 8 %_1) unnamed_addr #1 personality ptr @rust_eh_personality !dbg !2382 {
start:
  %0 = alloca { ptr, i32 }, align 8
  %_1.dbg.spill = alloca ptr, align 8
  store ptr %_1, ptr %_1.dbg.spill, align 8
  call void @llvm.dbg.declare(metadata ptr %_1.dbg.spill, metadata !2387, metadata !DIExpression()), !dbg !2390
; invoke <alloc::vec::Vec<T,A> as core::ops::drop::Drop>::drop
  invoke void @"_ZN70_$LT$alloc..vec..Vec$LT$T$C$A$GT$$u20$as$u20$core..ops..drop..Drop$GT$4drop17h7b2d8029aa36acd1E"(ptr align 8 %_1)
          to label %bb4 unwind label %cleanup, !dbg !2390

bb3:                                              ; preds = %cleanup
; invoke core::ptr::drop_in_place<alloc::raw_vec::RawVec<alloc::string::String>>
  invoke void @"_ZN4core3ptr72drop_in_place$LT$alloc..raw_vec..RawVec$LT$alloc..string..String$GT$$GT$17ha522f6fee4505b74E"(ptr align 8 %_1) #19
          to label %bb1 unwind label %terminate, !dbg !2390

cleanup:                                          ; preds = %start
  %1 = landingpad { ptr, i32 }
          cleanup
  %2 = extractvalue { ptr, i32 } %1, 0
  %3 = extractvalue { ptr, i32 } %1, 1
  %4 = getelementptr inbounds { ptr, i32 }, ptr %0, i32 0, i32 0
  store ptr %2, ptr %4, align 8
  %5 = getelementptr inbounds { ptr, i32 }, ptr %0, i32 0, i32 1
  store i32 %3, ptr %5, align 8
  br label %bb3

bb4:                                              ; preds = %start
; call core::ptr::drop_in_place<alloc::raw_vec::RawVec<alloc::string::String>>
  call void @"_ZN4core3ptr72drop_in_place$LT$alloc..raw_vec..RawVec$LT$alloc..string..String$GT$$GT$17ha522f6fee4505b74E"(ptr align 8 %_1), !dbg !2390
  ret void, !dbg !2390

terminate:                                        ; preds = %bb3
  %6 = landingpad { ptr, i32 }
          filter [0 x ptr] zeroinitializer
  %7 = extractvalue { ptr, i32 } %6, 0
  %8 = extractvalue { ptr, i32 } %6, 1
; call core::panicking::panic_in_cleanup
  call void @_ZN4core9panicking16panic_in_cleanup17hd44bb2114362504eE() #20, !dbg !2390
  unreachable, !dbg !2390

bb1:                                              ; preds = %bb3
  %9 = load ptr, ptr %0, align 8, !dbg !2390, !noundef !23
  %10 = getelementptr inbounds { ptr, i32 }, ptr %0, i32 0, i32 1, !dbg !2390
  %11 = load i32, ptr %10, align 8, !dbg !2390, !noundef !23
  %12 = insertvalue { ptr, i32 } poison, ptr %9, 0, !dbg !2390
  %13 = insertvalue { ptr, i32 } %12, i32 %11, 1, !dbg !2390
  resume { ptr, i32 } %13, !dbg !2390
}

; core::ptr::drop_in_place<alloc::boxed::Box<std::io::error::Custom>>
; Function Attrs: nonlazybind uwtable
define internal void @"_ZN4core3ptr68drop_in_place$LT$alloc..boxed..Box$LT$std..io..error..Custom$GT$$GT$17h7034e4647b9a6b3bE"(ptr align 8 %_1) unnamed_addr #1 personality ptr @rust_eh_personality !dbg !2391 {
start:
  %0 = alloca { ptr, i32 }, align 8
  %_1.dbg.spill = alloca ptr, align 8
  store ptr %_1, ptr %_1.dbg.spill, align 8
  call void @llvm.dbg.declare(metadata ptr %_1.dbg.spill, metadata !2396, metadata !DIExpression()), !dbg !2399
  %_6 = load ptr, ptr %_1, align 8, !dbg !2399, !noundef !23
; invoke core::ptr::drop_in_place<std::io::error::Custom>
  invoke void @"_ZN4core3ptr43drop_in_place$LT$std..io..error..Custom$GT$17h8cca29dc937ddf90E"(ptr align 8 %_6)
          to label %bb3 unwind label %cleanup, !dbg !2399

bb4:                                              ; preds = %cleanup
; invoke <alloc::boxed::Box<T,A> as core::ops::drop::Drop>::drop
  invoke void @"_ZN72_$LT$alloc..boxed..Box$LT$T$C$A$GT$$u20$as$u20$core..ops..drop..Drop$GT$4drop17h63d4d225b750c7edE"(ptr align 8 %_1) #19
          to label %bb1 unwind label %terminate, !dbg !2399

cleanup:                                          ; preds = %start
  %1 = landingpad { ptr, i32 }
          cleanup
  %2 = extractvalue { ptr, i32 } %1, 0
  %3 = extractvalue { ptr, i32 } %1, 1
  %4 = getelementptr inbounds { ptr, i32 }, ptr %0, i32 0, i32 0
  store ptr %2, ptr %4, align 8
  %5 = getelementptr inbounds { ptr, i32 }, ptr %0, i32 0, i32 1
  store i32 %3, ptr %5, align 8
  br label %bb4

bb3:                                              ; preds = %start
; call <alloc::boxed::Box<T,A> as core::ops::drop::Drop>::drop
  call void @"_ZN72_$LT$alloc..boxed..Box$LT$T$C$A$GT$$u20$as$u20$core..ops..drop..Drop$GT$4drop17h63d4d225b750c7edE"(ptr align 8 %_1), !dbg !2399
  ret void, !dbg !2399

terminate:                                        ; preds = %bb4
  %6 = landingpad { ptr, i32 }
          filter [0 x ptr] zeroinitializer
  %7 = extractvalue { ptr, i32 } %6, 0
  %8 = extractvalue { ptr, i32 } %6, 1
; call core::panicking::panic_in_cleanup
  call void @_ZN4core9panicking16panic_in_cleanup17hd44bb2114362504eE() #20, !dbg !2399
  unreachable, !dbg !2399

bb1:                                              ; preds = %bb4
  %9 = load ptr, ptr %0, align 8, !dbg !2399, !noundef !23
  %10 = getelementptr inbounds { ptr, i32 }, ptr %0, i32 0, i32 1, !dbg !2399
  %11 = load i32, ptr %10, align 8, !dbg !2399, !noundef !23
  %12 = insertvalue { ptr, i32 } poison, ptr %9, 0, !dbg !2399
  %13 = insertvalue { ptr, i32 } %12, i32 %11, 1, !dbg !2399
  resume { ptr, i32 } %13, !dbg !2399
}

; core::ptr::drop_in_place<core::option::Option<alloc::string::String>>
; Function Attrs: nonlazybind uwtable
define internal void @"_ZN4core3ptr70drop_in_place$LT$core..option..Option$LT$alloc..string..String$GT$$GT$17h70d34b471d5616e3E"(ptr align 8 %_1) unnamed_addr #1 !dbg !2400 {
start:
  %_1.dbg.spill = alloca ptr, align 8
  store ptr %_1, ptr %_1.dbg.spill, align 8
  call void @llvm.dbg.declare(metadata ptr %_1.dbg.spill, metadata !2416, metadata !DIExpression()), !dbg !2419
  %0 = load ptr, ptr %_1, align 8, !dbg !2419, !noundef !23
  %1 = ptrtoint ptr %0 to i64, !dbg !2419
  %2 = icmp eq i64 %1, 0, !dbg !2419
  %_2 = select i1 %2, i64 0, i64 1, !dbg !2419
  %3 = icmp eq i64 %_2, 0, !dbg !2419
  br i1 %3, label %bb1, label %bb2, !dbg !2419

bb1:                                              ; preds = %bb2, %start
  ret void, !dbg !2419

bb2:                                              ; preds = %start
; call core::ptr::drop_in_place<alloc::string::String>
  call void @"_ZN4core3ptr42drop_in_place$LT$alloc..string..String$GT$17hc94d05d46e47316eE"(ptr align 8 %_1), !dbg !2419
  br label %bb1, !dbg !2419
}

; core::ptr::drop_in_place<alloc::raw_vec::RawVec<alloc::string::String>>
; Function Attrs: nonlazybind uwtable
define internal void @"_ZN4core3ptr72drop_in_place$LT$alloc..raw_vec..RawVec$LT$alloc..string..String$GT$$GT$17ha522f6fee4505b74E"(ptr align 8 %_1) unnamed_addr #1 !dbg !2420 {
start:
  %_1.dbg.spill = alloca ptr, align 8
  store ptr %_1, ptr %_1.dbg.spill, align 8
  call void @llvm.dbg.declare(metadata ptr %_1.dbg.spill, metadata !2425, metadata !DIExpression()), !dbg !2428
; call <alloc::raw_vec::RawVec<T,A> as core::ops::drop::Drop>::drop
  call void @"_ZN77_$LT$alloc..raw_vec..RawVec$LT$T$C$A$GT$$u20$as$u20$core..ops..drop..Drop$GT$4drop17h68d42ff4a519346cE"(ptr align 8 %_1), !dbg !2428
  ret void, !dbg !2428
}

; core::ptr::drop_in_place<alloc::raw_vec::RawVec<std::ffi::os_str::OsString>>
; Function Attrs: nonlazybind uwtable
define internal void @"_ZN4core3ptr77drop_in_place$LT$alloc..raw_vec..RawVec$LT$std..ffi..os_str..OsString$GT$$GT$17hdee201cdcfecb0cbE"(ptr align 8 %_1) unnamed_addr #1 !dbg !2429 {
start:
  %_1.dbg.spill = alloca ptr, align 8
  store ptr %_1, ptr %_1.dbg.spill, align 8
  call void @llvm.dbg.declare(metadata ptr %_1.dbg.spill, metadata !2434, metadata !DIExpression()), !dbg !2437
; call <alloc::raw_vec::RawVec<T,A> as core::ops::drop::Drop>::drop
  call void @"_ZN77_$LT$alloc..raw_vec..RawVec$LT$T$C$A$GT$$u20$as$u20$core..ops..drop..Drop$GT$4drop17hb7aa12251942797cE"(ptr align 8 %_1), !dbg !2437
  ret void, !dbg !2437
}

; core::ptr::drop_in_place<std::rt::lang_start<()>::{{closure}}>
; Function Attrs: inlinehint nonlazybind uwtable
define internal void @"_ZN4core3ptr85drop_in_place$LT$std..rt..lang_start$LT$$LP$$RP$$GT$..$u7b$$u7b$closure$u7d$$u7d$$GT$17h11a48a71e68d9c82E"(ptr align 8 %_1) unnamed_addr #0 !dbg !2438 {
start:
  %_1.dbg.spill = alloca ptr, align 8
  store ptr %_1, ptr %_1.dbg.spill, align 8
  call void @llvm.dbg.declare(metadata ptr %_1.dbg.spill, metadata !2442, metadata !DIExpression()), !dbg !2445
  ret void, !dbg !2445
}

; core::ptr::drop_in_place<alloc::vec::into_iter::IntoIter<std::ffi::os_str::OsString>>
; Function Attrs: nonlazybind uwtable
define internal void @"_ZN4core3ptr86drop_in_place$LT$alloc..vec..into_iter..IntoIter$LT$std..ffi..os_str..OsString$GT$$GT$17hd462600a87d28070E"(ptr align 8 %_1) unnamed_addr #1 !dbg !2446 {
start:
  %_1.dbg.spill = alloca ptr, align 8
  store ptr %_1, ptr %_1.dbg.spill, align 8
  call void @llvm.dbg.declare(metadata ptr %_1.dbg.spill, metadata !2451, metadata !DIExpression()), !dbg !2454
; call <alloc::vec::into_iter::IntoIter<T,A> as core::ops::drop::Drop>::drop
  call void @"_ZN86_$LT$alloc..vec..into_iter..IntoIter$LT$T$C$A$GT$$u20$as$u20$core..ops..drop..Drop$GT$4drop17hf64ca410264e7bc5E"(ptr align 8 %_1), !dbg !2454
  ret void, !dbg !2454
}

; core::ptr::drop_in_place<dyn core::error::Error+core::marker::Send+core::marker::Sync>
; Function Attrs: nonlazybind uwtable
define internal void @"_ZN4core3ptr93drop_in_place$LT$dyn$u20$core..error..Error$u2b$core..marker..Send$u2b$core..marker..Sync$GT$17h670ec9f4adae0761E"(ptr align 1 %_1.0, ptr align 8 %_1.1) unnamed_addr #1 !dbg !2455 {
start:
  %_1.dbg.spill = alloca { ptr, ptr }, align 8
  %0 = getelementptr inbounds { ptr, ptr }, ptr %_1.dbg.spill, i32 0, i32 0
  store ptr %_1.0, ptr %0, align 8
  %1 = getelementptr inbounds { ptr, ptr }, ptr %_1.dbg.spill, i32 0, i32 1
  store ptr %_1.1, ptr %1, align 8
  call void @llvm.dbg.declare(metadata ptr %_1.dbg.spill, metadata !2463, metadata !DIExpression()), !dbg !2466
  %2 = getelementptr inbounds ptr, ptr %_1.1, i64 0, !dbg !2466
  %3 = load ptr, ptr %2, align 8, !dbg !2466, !invariant.load !23, !nonnull !23
  call void %3(ptr align 1 %_1.0), !dbg !2466
  ret void, !dbg !2466
}

; core::ptr::drop_in_place<core::result::Result<alloc::string::String,std::io::error::Error>>
; Function Attrs: nonlazybind uwtable
define internal void @"_ZN4core3ptr94drop_in_place$LT$core..result..Result$LT$alloc..string..String$C$std..io..error..Error$GT$$GT$17h7c6f7ad27d6ad56cE"(ptr align 8 %_1) unnamed_addr #1 !dbg !2467 {
start:
  %_1.dbg.spill = alloca ptr, align 8
  store ptr %_1, ptr %_1.dbg.spill, align 8
  call void @llvm.dbg.declare(metadata ptr %_1.dbg.spill, metadata !2472, metadata !DIExpression()), !dbg !2475
  %0 = load ptr, ptr %_1, align 8, !dbg !2475, !noundef !23
  %1 = ptrtoint ptr %0 to i64, !dbg !2475
  %2 = icmp eq i64 %1, 0, !dbg !2475
  %_2 = select i1 %2, i64 1, i64 0, !dbg !2475
  %3 = icmp eq i64 %_2, 0, !dbg !2475
  br i1 %3, label %bb2, label %bb3, !dbg !2475

bb2:                                              ; preds = %start
; call core::ptr::drop_in_place<alloc::string::String>
  call void @"_ZN4core3ptr42drop_in_place$LT$alloc..string..String$GT$17hc94d05d46e47316eE"(ptr align 8 %_1), !dbg !2475
  br label %bb1, !dbg !2475

bb3:                                              ; preds = %start
  %4 = getelementptr inbounds %"core::result::Result<alloc::string::String, std::io::error::Error>::Err", ptr %_1, i32 0, i32 1, !dbg !2475
; call core::ptr::drop_in_place<std::io::error::Error>
  call void @"_ZN4core3ptr42drop_in_place$LT$std..io..error..Error$GT$17h90335012d3925325E"(ptr align 8 %4), !dbg !2475
  br label %bb1, !dbg !2475

bb1:                                              ; preds = %bb3, %bb2
  ret void, !dbg !2475
}

; core::str::validations::next_code_point
; Function Attrs: inlinehint nonlazybind uwtable
define internal { i32, i32 } @_ZN4core3str11validations15next_code_point17hcbaca967a9627a5aE(ptr align 8 %bytes) unnamed_addr #0 !dbg !2476 {
start:
  %w.dbg.spill = alloca i8, align 1
  %val.dbg.spill11 = alloca ptr, align 8
  %y_z.dbg.spill = alloca i32, align 4
  %ch.dbg.spill = alloca i32, align 4
  %z.dbg.spill = alloca i8, align 1
  %val.dbg.spill8 = alloca ptr, align 8
  %y.dbg.spill = alloca i8, align 1
  %val.dbg.spill6 = alloca ptr, align 8
  %init.dbg.spill = alloca i32, align 4
  %x.dbg.spill = alloca i8, align 1
  %val.dbg.spill = alloca ptr, align 8
  %v.dbg.spill = alloca ptr, align 8
  %bytes.dbg.spill = alloca ptr, align 8
  %self4 = alloca ptr, align 8
  %self3 = alloca ptr, align 8
  %ch = alloca i32, align 4
  %self2 = alloca ptr, align 8
  %self = alloca ptr, align 8
  %_3 = alloca ptr, align 8
  %_0 = alloca { i32, i32 }, align 4
  %width.dbg.spill = alloca i32, align 4
  %residual.dbg.spill1 = alloca %"core::option::Option<core::convert::Infallible>::None", align 1
  %residual.dbg.spill = alloca %"core::option::Option<core::convert::Infallible>::None", align 1
  call void @llvm.dbg.declare(metadata ptr %residual.dbg.spill, metadata !2509, metadata !DIExpression()), !dbg !2543
  call void @llvm.dbg.declare(metadata ptr %residual.dbg.spill1, metadata !2544, metadata !DIExpression()), !dbg !2551
  store i32 2, ptr %width.dbg.spill, align 4, !dbg !2553
  call void @llvm.dbg.declare(metadata ptr %width.dbg.spill, metadata !2560, metadata !DIExpression()), !dbg !2553
  store ptr %bytes, ptr %bytes.dbg.spill, align 8, !dbg !2553
  call void @llvm.dbg.declare(metadata ptr %bytes.dbg.spill, metadata !2506, metadata !DIExpression()), !dbg !2562
  call void @llvm.dbg.declare(metadata ptr %self, metadata !2563, metadata !DIExpression()), !dbg !2600
  call void @llvm.dbg.declare(metadata ptr %self2, metadata !2602, metadata !DIExpression()), !dbg !2619
  call void @llvm.dbg.declare(metadata ptr %ch, metadata !2533, metadata !DIExpression()), !dbg !2621
  call void @llvm.dbg.declare(metadata ptr %self3, metadata !2611, metadata !DIExpression()), !dbg !2622
  call void @llvm.dbg.declare(metadata ptr %self4, metadata !2615, metadata !DIExpression()), !dbg !2624
; call <core::slice::iter::Iter<T> as core::iter::traits::iterator::Iterator>::next
  %0 = call align 1 ptr @"_ZN91_$LT$core..slice..iter..Iter$LT$T$GT$$u20$as$u20$core..iter..traits..iterator..Iterator$GT$4next17hb7cd0d144c25af50E"(ptr align 8 %bytes), !dbg !2601
  store ptr %0, ptr %self, align 8, !dbg !2601
  %1 = load ptr, ptr %self, align 8, !dbg !2626, !noundef !23
  %2 = ptrtoint ptr %1 to i64, !dbg !2626
  %3 = icmp eq i64 %2, 0, !dbg !2626
  %_30 = select i1 %3, i64 0, i64 1, !dbg !2626
  %4 = icmp eq i64 %_30, 0, !dbg !2627
  br i1 %4, label %bb16, label %bb17, !dbg !2627

bb16:                                             ; preds = %start
  store ptr null, ptr %_3, align 8, !dbg !2628
  br label %bb2, !dbg !2629

bb17:                                             ; preds = %start
  %v = load ptr, ptr %self, align 8, !dbg !2630, !nonnull !23, !align !673, !noundef !23
  store ptr %v, ptr %v.dbg.spill, align 8, !dbg !2630
  call void @llvm.dbg.declare(metadata ptr %v.dbg.spill, metadata !2598, metadata !DIExpression()), !dbg !2631
  store ptr %v, ptr %_3, align 8, !dbg !2632
  br label %bb2, !dbg !2633

bb2:                                              ; preds = %bb17, %bb16
  %5 = load ptr, ptr %_3, align 8, !dbg !2601, !noundef !23
  %6 = ptrtoint ptr %5 to i64, !dbg !2601
  %7 = icmp eq i64 %6, 0, !dbg !2601
  %_5 = select i1 %7, i64 1, i64 0, !dbg !2601
  %8 = icmp eq i64 %_5, 0, !dbg !2601
  br i1 %8, label %bb3, label %bb5, !dbg !2601

bb3:                                              ; preds = %bb2
  %val = load ptr, ptr %_3, align 8, !dbg !2601, !nonnull !23, !align !673, !noundef !23
  store ptr %val, ptr %val.dbg.spill, align 8, !dbg !2601
  call void @llvm.dbg.declare(metadata ptr %val.dbg.spill, metadata !2527, metadata !DIExpression()), !dbg !2634
  %x = load i8, ptr %val, align 1, !dbg !2635, !noundef !23
  store i8 %x, ptr %x.dbg.spill, align 1, !dbg !2635
  call void @llvm.dbg.declare(metadata ptr %x.dbg.spill, metadata !2507, metadata !DIExpression()), !dbg !2636
  call void @llvm.dbg.declare(metadata ptr %x.dbg.spill, metadata !2559, metadata !DIExpression()), !dbg !2637
  %_7 = icmp ult i8 %x, -128, !dbg !2638
  br i1 %_7, label %bb6, label %bb7, !dbg !2638

bb5:                                              ; preds = %bb2
  store i32 0, ptr %_0, align 4, !dbg !2639
  br label %bb15, !dbg !2640

bb7:                                              ; preds = %bb3
  %_32 = and i8 %x, 31, !dbg !2643
  %init = zext i8 %_32 to i32, !dbg !2643
  store i32 %init, ptr %init.dbg.spill, align 4, !dbg !2643
  call void @llvm.dbg.declare(metadata ptr %init.dbg.spill, metadata !2529, metadata !DIExpression()), !dbg !2644
  call void @llvm.dbg.declare(metadata ptr %init.dbg.spill, metadata !2645, metadata !DIExpression()), !dbg !2658
; call <core::slice::iter::Iter<T> as core::iter::traits::iterator::Iterator>::next
  %9 = call align 1 ptr @"_ZN91_$LT$core..slice..iter..Iter$LT$T$GT$$u20$as$u20$core..iter..traits..iterator..Iterator$GT$4next17hb7cd0d144c25af50E"(ptr align 8 %bytes), !dbg !2660
  store ptr %9, ptr %self2, align 8, !dbg !2660
  %10 = load ptr, ptr %self2, align 8, !dbg !2661, !noundef !23
  %11 = ptrtoint ptr %10 to i64, !dbg !2661
  %12 = icmp eq i64 %11, 0, !dbg !2661
  %_34 = select i1 %12, i64 0, i64 1, !dbg !2661
  %_35 = icmp eq i64 %_34, 1, !dbg !2662
  call void @llvm.assume(i1 %_35), !dbg !2662
  %val5 = load ptr, ptr %self2, align 8, !dbg !2663, !nonnull !23, !align !673, !noundef !23
  store ptr %val5, ptr %val.dbg.spill6, align 8, !dbg !2663
  call void @llvm.dbg.declare(metadata ptr %val.dbg.spill6, metadata !2609, metadata !DIExpression()), !dbg !2664
  %y = load i8, ptr %val5, align 1, !dbg !2665, !noundef !23
  store i8 %y, ptr %y.dbg.spill, align 1, !dbg !2665
  call void @llvm.dbg.declare(metadata ptr %y.dbg.spill, metadata !2531, metadata !DIExpression()), !dbg !2666
  call void @llvm.dbg.declare(metadata ptr %y.dbg.spill, metadata !2651, metadata !DIExpression()), !dbg !2667
  %_36 = shl i32 %init, 6, !dbg !2668
  %_38 = and i8 %y, 63, !dbg !2669
  %_37 = zext i8 %_38 to i32, !dbg !2669
  %13 = or i32 %_36, %_37, !dbg !2668
  store i32 %13, ptr %ch, align 4, !dbg !2668
  %_14 = icmp uge i8 %x, -32, !dbg !2670
  br i1 %_14, label %bb9, label %bb14, !dbg !2670

bb6:                                              ; preds = %bb3
  %_8 = zext i8 %x to i32, !dbg !2671
  %14 = getelementptr inbounds { i32, i32 }, ptr %_0, i32 0, i32 1, !dbg !2672
  store i32 %_8, ptr %14, align 4, !dbg !2672
  store i32 1, ptr %_0, align 4, !dbg !2672
  br label %bb15, !dbg !2673

bb14:                                             ; preds = %bb13, %bb7
  %_29 = load i32, ptr %ch, align 4, !dbg !2675, !noundef !23
  %15 = getelementptr inbounds { i32, i32 }, ptr %_0, i32 0, i32 1, !dbg !2676
  store i32 %_29, ptr %15, align 4, !dbg !2676
  store i32 1, ptr %_0, align 4, !dbg !2676
  br label %bb15, !dbg !2677

bb9:                                              ; preds = %bb7
; call <core::slice::iter::Iter<T> as core::iter::traits::iterator::Iterator>::next
  %16 = call align 1 ptr @"_ZN91_$LT$core..slice..iter..Iter$LT$T$GT$$u20$as$u20$core..iter..traits..iterator..Iterator$GT$4next17hb7cd0d144c25af50E"(ptr align 8 %bytes), !dbg !2678
  store ptr %16, ptr %self3, align 8, !dbg !2678
  %17 = load ptr, ptr %self3, align 8, !dbg !2679, !noundef !23
  %18 = ptrtoint ptr %17 to i64, !dbg !2679
  %19 = icmp eq i64 %18, 0, !dbg !2679
  %_40 = select i1 %19, i64 0, i64 1, !dbg !2679
  %_41 = icmp eq i64 %_40, 1, !dbg !2680
  call void @llvm.assume(i1 %_41), !dbg !2680
  %val7 = load ptr, ptr %self3, align 8, !dbg !2681, !nonnull !23, !align !673, !noundef !23
  store ptr %val7, ptr %val.dbg.spill8, align 8, !dbg !2681
  call void @llvm.dbg.declare(metadata ptr %val.dbg.spill8, metadata !2613, metadata !DIExpression()), !dbg !2682
  %z = load i8, ptr %val7, align 1, !dbg !2683, !noundef !23
  store i8 %z, ptr %z.dbg.spill, align 1, !dbg !2683
  call void @llvm.dbg.declare(metadata ptr %z.dbg.spill, metadata !2535, metadata !DIExpression()), !dbg !2684
  call void @llvm.dbg.declare(metadata ptr %z.dbg.spill, metadata !2654, metadata !DIExpression()), !dbg !2685
  %_20 = and i8 %y, 63, !dbg !2687
  %ch9 = zext i8 %_20 to i32, !dbg !2687
  store i32 %ch9, ptr %ch.dbg.spill, align 4, !dbg !2687
  call void @llvm.dbg.declare(metadata ptr %ch.dbg.spill, metadata !2652, metadata !DIExpression()), !dbg !2688
  %_42 = shl i32 %ch9, 6, !dbg !2689
  %_44 = and i8 %z, 63, !dbg !2690
  %_43 = zext i8 %_44 to i32, !dbg !2690
  %y_z = or i32 %_42, %_43, !dbg !2689
  store i32 %y_z, ptr %y_z.dbg.spill, align 4, !dbg !2689
  call void @llvm.dbg.declare(metadata ptr %y_z.dbg.spill, metadata !2537, metadata !DIExpression()), !dbg !2691
  call void @llvm.dbg.declare(metadata ptr %y_z.dbg.spill, metadata !2655, metadata !DIExpression()), !dbg !2692
  %_21 = shl i32 %init, 12, !dbg !2694
  %20 = or i32 %_21, %y_z, !dbg !2695
  store i32 %20, ptr %ch, align 4, !dbg !2695
  %_22 = icmp uge i8 %x, -16, !dbg !2696
  br i1 %_22, label %bb11, label %bb13, !dbg !2696

bb13:                                             ; preds = %bb11, %bb9
  br label %bb14, !dbg !2697

bb11:                                             ; preds = %bb9
; call <core::slice::iter::Iter<T> as core::iter::traits::iterator::Iterator>::next
  %21 = call align 1 ptr @"_ZN91_$LT$core..slice..iter..Iter$LT$T$GT$$u20$as$u20$core..iter..traits..iterator..Iterator$GT$4next17hb7cd0d144c25af50E"(ptr align 8 %bytes), !dbg !2698
  store ptr %21, ptr %self4, align 8, !dbg !2698
  %22 = load ptr, ptr %self4, align 8, !dbg !2699, !noundef !23
  %23 = ptrtoint ptr %22 to i64, !dbg !2699
  %24 = icmp eq i64 %23, 0, !dbg !2699
  %_46 = select i1 %24, i64 0, i64 1, !dbg !2699
  %_47 = icmp eq i64 %_46, 1, !dbg !2700
  call void @llvm.assume(i1 %_47), !dbg !2700
  %val10 = load ptr, ptr %self4, align 8, !dbg !2701, !nonnull !23, !align !673, !noundef !23
  store ptr %val10, ptr %val.dbg.spill11, align 8, !dbg !2701
  call void @llvm.dbg.declare(metadata ptr %val.dbg.spill11, metadata !2617, metadata !DIExpression()), !dbg !2702
  %w = load i8, ptr %val10, align 1, !dbg !2703, !noundef !23
  store i8 %w, ptr %w.dbg.spill, align 1, !dbg !2703
  call void @llvm.dbg.declare(metadata ptr %w.dbg.spill, metadata !2539, metadata !DIExpression()), !dbg !2704
  call void @llvm.dbg.declare(metadata ptr %w.dbg.spill, metadata !2657, metadata !DIExpression()), !dbg !2705
  %_27 = and i32 %init, 7, !dbg !2706
  %_26 = shl i32 %_27, 18, !dbg !2706
  %_48 = shl i32 %y_z, 6, !dbg !2707
  %_50 = and i8 %w, 63, !dbg !2708
  %_49 = zext i8 %_50 to i32, !dbg !2708
  %_28 = or i32 %_48, %_49, !dbg !2707
  %25 = or i32 %_26, %_28, !dbg !2709
  store i32 %25, ptr %ch, align 4, !dbg !2709
  br label %bb13, !dbg !2710

bb15:                                             ; preds = %bb5, %bb6, %bb14
  %26 = getelementptr inbounds { i32, i32 }, ptr %_0, i32 0, i32 0, !dbg !2677
  %27 = load i32, ptr %26, align 4, !dbg !2677, !range !2711, !noundef !23
  %28 = getelementptr inbounds { i32, i32 }, ptr %_0, i32 0, i32 1, !dbg !2677
  %29 = load i32, ptr %28, align 4, !dbg !2677
  %30 = insertvalue { i32, i32 } poison, i32 %27, 0, !dbg !2677
  %31 = insertvalue { i32, i32 } %30, i32 %29, 1, !dbg !2677
  ret { i32, i32 } %31, !dbg !2677

bb4:                                              ; No predecessors!
  unreachable, !dbg !2601
}

; core::str::<impl str>::is_char_boundary
; Function Attrs: inlinehint nonlazybind uwtable
define internal zeroext i1 @"_ZN4core3str21_$LT$impl$u20$str$GT$16is_char_boundary17h694e13b849def0fdE"(ptr align 1 %self.0, i64 %self.1, i64 %index) unnamed_addr #0 !dbg !2712 {
start:
  %b.dbg.spill = alloca i8, align 1
  %self.dbg.spill2 = alloca ptr, align 8
  %self.dbg.spill1 = alloca { ptr, i64 }, align 8
  %index.dbg.spill = alloca i64, align 8
  %self.dbg.spill = alloca { ptr, i64 }, align 8
  %_3 = alloca ptr, align 8
  %_0 = alloca i8, align 1
  %0 = getelementptr inbounds { ptr, i64 }, ptr %self.dbg.spill, i32 0, i32 0
  store ptr %self.0, ptr %0, align 8
  %1 = getelementptr inbounds { ptr, i64 }, ptr %self.dbg.spill, i32 0, i32 1
  store i64 %self.1, ptr %1, align 8
  call void @llvm.dbg.declare(metadata ptr %self.dbg.spill, metadata !2716, metadata !DIExpression()), !dbg !2720
  call void @llvm.dbg.declare(metadata ptr %self.dbg.spill, metadata !2721, metadata !DIExpression()), !dbg !2727
  call void @llvm.dbg.declare(metadata ptr %self.dbg.spill, metadata !2729, metadata !DIExpression()), !dbg !2735
  call void @llvm.dbg.declare(metadata ptr %self.dbg.spill, metadata !2725, metadata !DIExpression()), !dbg !2737
  store i64 %index, ptr %index.dbg.spill, align 8
  call void @llvm.dbg.declare(metadata ptr %index.dbg.spill, metadata !2717, metadata !DIExpression()), !dbg !2739
  call void @llvm.dbg.declare(metadata ptr %index.dbg.spill, metadata !2740, metadata !DIExpression()), !dbg !2751
  call void @llvm.dbg.declare(metadata ptr %index.dbg.spill, metadata !2753, metadata !DIExpression()), !dbg !2763
  call void @llvm.dbg.declare(metadata ptr %index.dbg.spill, metadata !2765, metadata !DIExpression()), !dbg !2774
  call void @llvm.dbg.declare(metadata ptr %index.dbg.spill, metadata !2772, metadata !DIExpression()), !dbg !2776
  call void @llvm.dbg.declare(metadata ptr %index.dbg.spill, metadata !2777, metadata !DIExpression()), !dbg !2786
  call void @llvm.dbg.declare(metadata ptr %index.dbg.spill, metadata !2789, metadata !DIExpression()), !dbg !2796
  %2 = icmp eq i64 %index, 0, !dbg !2798
  br i1 %2, label %bb1, label %bb2, !dbg !2798

bb1:                                              ; preds = %start
  store i8 1, ptr %_0, align 1, !dbg !2799
  br label %bb7, !dbg !2800

bb2:                                              ; preds = %start
  %3 = getelementptr inbounds { ptr, i64 }, ptr %self.dbg.spill1, i32 0, i32 0, !dbg !2801
  store ptr %self.0, ptr %3, align 8, !dbg !2801
  %4 = getelementptr inbounds { ptr, i64 }, ptr %self.dbg.spill1, i32 0, i32 1, !dbg !2801
  store i64 %self.1, ptr %4, align 8, !dbg !2801
  call void @llvm.dbg.declare(metadata ptr %self.dbg.spill1, metadata !2748, metadata !DIExpression()), !dbg !2802
  call void @llvm.dbg.declare(metadata ptr %self.dbg.spill1, metadata !2762, metadata !DIExpression()), !dbg !2803
  call void @llvm.dbg.declare(metadata ptr %self.dbg.spill1, metadata !2771, metadata !DIExpression()), !dbg !2804
  call void @llvm.dbg.declare(metadata ptr %self.dbg.spill1, metadata !2785, metadata !DIExpression()), !dbg !2786
  call void @llvm.dbg.declare(metadata ptr %self.dbg.spill1, metadata !2805, metadata !DIExpression()), !dbg !2812
  call void @llvm.dbg.declare(metadata ptr %self.dbg.spill1, metadata !2814, metadata !DIExpression()), !dbg !2818
  call void @llvm.dbg.declare(metadata ptr %self.dbg.spill1, metadata !2820, metadata !DIExpression()), !dbg !2826
  %_9 = icmp ult i64 %index, %self.1, !dbg !2828
  br i1 %_9, label %bb8, label %bb9, !dbg !2828

bb7:                                              ; preds = %bb6, %bb1
  %5 = load i8, ptr %_0, align 1, !dbg !2800, !range !810, !noundef !23
  %6 = trunc i8 %5 to i1, !dbg !2800
  ret i1 %6, !dbg !2800

bb9:                                              ; preds = %bb2
  store ptr null, ptr %_3, align 8, !dbg !2829
  br label %bb10, !dbg !2830

bb8:                                              ; preds = %bb2
  store ptr %self.0, ptr %self.dbg.spill2, align 8, !dbg !2831
  call void @llvm.dbg.declare(metadata ptr %self.dbg.spill2, metadata !2795, metadata !DIExpression()), !dbg !2832
  %_12 = getelementptr inbounds i8, ptr %self.0, i64 %index, !dbg !2833
  store ptr %_12, ptr %_3, align 8, !dbg !2834
  br label %bb10, !dbg !2830

bb10:                                             ; preds = %bb8, %bb9
  %7 = load ptr, ptr %_3, align 8, !dbg !2835, !noundef !23
  %8 = ptrtoint ptr %7 to i64, !dbg !2835
  %9 = icmp eq i64 %8, 0, !dbg !2835
  %_5 = select i1 %9, i64 0, i64 1, !dbg !2835
  %10 = icmp eq i64 %_5, 0, !dbg !2836
  br i1 %10, label %bb5, label %bb3, !dbg !2836

bb5:                                              ; preds = %bb10
  %11 = icmp eq i64 %index, %self.1, !dbg !2837
  %12 = zext i1 %11 to i8, !dbg !2837
  store i8 %12, ptr %_0, align 1, !dbg !2837
  br label %bb6, !dbg !2838

bb3:                                              ; preds = %bb10
  %_8 = load ptr, ptr %_3, align 8, !dbg !2839, !nonnull !23, !align !673, !noundef !23
  %b = load i8, ptr %_8, align 1, !dbg !2839, !noundef !23
  store i8 %b, ptr %b.dbg.spill, align 1, !dbg !2839
  call void @llvm.dbg.declare(metadata ptr %b.dbg.spill, metadata !2718, metadata !DIExpression()), !dbg !2840
  call void @llvm.dbg.declare(metadata ptr %b.dbg.spill, metadata !2841, metadata !DIExpression()), !dbg !2848
  %13 = icmp sge i8 %b, -64, !dbg !2850
  %14 = zext i1 %13 to i8, !dbg !2850
  store i8 %14, ptr %_0, align 1, !dbg !2850
  br label %bb6, !dbg !2851

bb6:                                              ; preds = %bb3, %bb5
  br label %bb7, !dbg !2800

bb4:                                              ; No predecessors!
  unreachable, !dbg !2835
}

; core::str::<impl str>::find
; Function Attrs: inlinehint nonlazybind uwtable
define internal { i64, i64 } @"_ZN4core3str21_$LT$impl$u20$str$GT$4find17hf5fd25893945475aE"(ptr align 1 %self.0, i64 %self.1, ptr align 8 %pat) unnamed_addr #0 personality ptr @rust_eh_personality !dbg !2852 {
start:
  %x.dbg.spill2 = alloca i64, align 8
  %x.dbg.spill = alloca i64, align 8
  %0 = alloca { ptr, i32 }, align 8
  %pat.dbg.spill = alloca ptr, align 8
  %self.dbg.spill = alloca { ptr, i64 }, align 8
  %_5 = alloca %"core::str::pattern::StrSearcher<'_, '_>", align 8
  %self = alloca %"core::option::Option<(usize, usize)>", align 8
  %_0 = alloca { i64, i64 }, align 8
  %f.dbg.spill = alloca %"{closure@core::str::<impl str>::find<'_, &alloc::string::String>::{closure#0}}", align 1
  call void @llvm.dbg.declare(metadata ptr %f.dbg.spill, metadata !2858, metadata !DIExpression()), !dbg !2890
  %1 = getelementptr inbounds { ptr, i64 }, ptr %self.dbg.spill, i32 0, i32 0, !dbg !2890
  store ptr %self.0, ptr %1, align 8, !dbg !2890
  %2 = getelementptr inbounds { ptr, i64 }, ptr %self.dbg.spill, i32 0, i32 1, !dbg !2890
  store i64 %self.1, ptr %2, align 8, !dbg !2890
  call void @llvm.dbg.declare(metadata ptr %self.dbg.spill, metadata !2856, metadata !DIExpression()), !dbg !2892
  store ptr %pat, ptr %pat.dbg.spill, align 8, !dbg !2890
  call void @llvm.dbg.declare(metadata ptr %pat.dbg.spill, metadata !2857, metadata !DIExpression()), !dbg !2893
  call void @llvm.dbg.declare(metadata ptr %self, metadata !2887, metadata !DIExpression()), !dbg !2894
; call <&alloc::string::String as core::str::pattern::Pattern>::into_searcher
  call void @"_ZN73_$LT$$RF$alloc..string..String$u20$as$u20$core..str..pattern..Pattern$GT$13into_searcher17h09779be00e2c2fe4E"(ptr sret(%"core::str::pattern::StrSearcher<'_, '_>") align 8 %_5, ptr align 8 %pat, ptr align 1 %self.0, i64 %self.1), !dbg !2895
; invoke <core::str::pattern::StrSearcher as core::str::pattern::Searcher>::next_match
  invoke void @"_ZN80_$LT$core..str..pattern..StrSearcher$u20$as$u20$core..str..pattern..Searcher$GT$10next_match17h235393c73e06fb09E"(ptr sret(%"core::option::Option<(usize, usize)>") align 8 %self, ptr align 8 %_5)
          to label %bb2 unwind label %cleanup, !dbg !2895

bb4:                                              ; preds = %cleanup
  %3 = load ptr, ptr %0, align 8, !dbg !2896, !noundef !23
  %4 = getelementptr inbounds { ptr, i32 }, ptr %0, i32 0, i32 1, !dbg !2896
  %5 = load i32, ptr %4, align 8, !dbg !2896, !noundef !23
  %6 = insertvalue { ptr, i32 } poison, ptr %3, 0, !dbg !2896
  %7 = insertvalue { ptr, i32 } %6, i32 %5, 1, !dbg !2896
  resume { ptr, i32 } %7, !dbg !2896

cleanup:                                          ; preds = %start
  %8 = landingpad { ptr, i32 }
          cleanup
  %9 = extractvalue { ptr, i32 } %8, 0
  %10 = extractvalue { ptr, i32 } %8, 1
  %11 = getelementptr inbounds { ptr, i32 }, ptr %0, i32 0, i32 0
  store ptr %9, ptr %11, align 8
  %12 = getelementptr inbounds { ptr, i32 }, ptr %0, i32 0, i32 1
  store i32 %10, ptr %12, align 8
  br label %bb4

bb2:                                              ; preds = %start
  %_6 = load i64, ptr %self, align 8, !dbg !2897, !range !465, !noundef !23
  %13 = icmp eq i64 %_6, 0, !dbg !2898
  br i1 %13, label %bb6, label %bb8, !dbg !2898

bb6:                                              ; preds = %bb2
  store i64 0, ptr %_0, align 8, !dbg !2899
  br label %bb9, !dbg !2899

bb8:                                              ; preds = %bb2
  %14 = getelementptr inbounds %"core::option::Option<(usize, usize)>::Some", ptr %self, i32 0, i32 1, !dbg !2900
  %x = load i64, ptr %14, align 8, !dbg !2900, !noundef !23
  store i64 %x, ptr %x.dbg.spill, align 8, !dbg !2900
  call void @llvm.dbg.declare(metadata ptr %x.dbg.spill, metadata !2888, metadata !DIExpression(DW_OP_LLVM_fragment, 0, 64)), !dbg !2901
  call void @llvm.dbg.declare(metadata ptr %x.dbg.spill, metadata !2902, metadata !DIExpression()), !dbg !2909
  %15 = getelementptr inbounds %"core::option::Option<(usize, usize)>::Some", ptr %self, i32 0, i32 1, !dbg !2900
  %16 = getelementptr inbounds { i64, i64 }, ptr %15, i32 0, i32 1, !dbg !2900
  %x1 = load i64, ptr %16, align 8, !dbg !2900, !noundef !23
  store i64 %x1, ptr %x.dbg.spill2, align 8, !dbg !2900
  call void @llvm.dbg.declare(metadata ptr %x.dbg.spill2, metadata !2888, metadata !DIExpression(DW_OP_LLVM_fragment, 64, 64)), !dbg !2901
  %17 = getelementptr inbounds { i64, i64 }, ptr %_0, i32 0, i32 1, !dbg !2911
  store i64 %x, ptr %17, align 8, !dbg !2911
  store i64 1, ptr %_0, align 8, !dbg !2911
  br label %bb9, !dbg !2912

bb9:                                              ; preds = %bb8, %bb6
  %18 = getelementptr inbounds { i64, i64 }, ptr %_0, i32 0, i32 0, !dbg !2913
  %19 = load i64, ptr %18, align 8, !dbg !2913, !range !465, !noundef !23
  %20 = getelementptr inbounds { i64, i64 }, ptr %_0, i32 0, i32 1, !dbg !2913
  %21 = load i64, ptr %20, align 8, !dbg !2913
  %22 = insertvalue { i64, i64 } poison, i64 %19, 0, !dbg !2913
  %23 = insertvalue { i64, i64 } %22, i64 %21, 1, !dbg !2913
  ret { i64, i64 } %23, !dbg !2913

bb7:                                              ; No predecessors!
  unreachable, !dbg !2897
}

; core::str::traits::<impl core::slice::index::SliceIndex<str> for core::ops::range::Range<usize>>::get
; Function Attrs: inlinehint nonlazybind uwtable
define internal { ptr, i64 } @"_ZN4core3str6traits108_$LT$impl$u20$core..slice..index..SliceIndex$LT$str$GT$$u20$for$u20$core..ops..range..Range$LT$usize$GT$$GT$3get17h553ab7fdb5664c5aE"(i64 %self.0, i64 %self.1, ptr align 1 %slice.0, i64 %slice.1) unnamed_addr #0 !dbg !2914 {
start:
  %data_address.dbg.spill = alloca ptr, align 8
  %len.dbg.spill = alloca i64, align 8
  %ptr.dbg.spill = alloca ptr, align 8
  %self.dbg.spill4 = alloca ptr, align 8
  %slice.dbg.spill3 = alloca { ptr, i64 }, align 8
  %self.dbg.spill2 = alloca i64, align 8
  %self.dbg.spill1 = alloca i64, align 8
  %slice.dbg.spill = alloca { ptr, i64 }, align 8
  %self.dbg.spill = alloca { i64, i64 }, align 8
  %_20 = alloca { ptr, i64 }, align 8
  %_19 = alloca %"core::ptr::metadata::PtrRepr<[u8]>", align 8
  %_0 = alloca { ptr, i64 }, align 8
  %0 = getelementptr inbounds { i64, i64 }, ptr %self.dbg.spill, i32 0, i32 0
  store i64 %self.0, ptr %0, align 8
  %1 = getelementptr inbounds { i64, i64 }, ptr %self.dbg.spill, i32 0, i32 1
  store i64 %self.1, ptr %1, align 8
  call void @llvm.dbg.declare(metadata ptr %self.dbg.spill, metadata !2931, metadata !DIExpression()), !dbg !2933
  %2 = getelementptr inbounds { ptr, i64 }, ptr %slice.dbg.spill, i32 0, i32 0
  store ptr %slice.0, ptr %2, align 8
  %3 = getelementptr inbounds { ptr, i64 }, ptr %slice.dbg.spill, i32 0, i32 1
  store i64 %slice.1, ptr %3, align 8
  call void @llvm.dbg.declare(metadata ptr %slice.dbg.spill, metadata !2932, metadata !DIExpression()), !dbg !2934
  call void @llvm.dbg.declare(metadata ptr %slice.dbg.spill, metadata !2935, metadata !DIExpression()), !dbg !2954
  %_3 = icmp ule i64 %self.0, %self.1, !dbg !2956
  br i1 %_3, label %bb1, label %bb8, !dbg !2956

bb8:                                              ; preds = %start
  br label %bb9, !dbg !2957

bb1:                                              ; preds = %start
; call core::str::<impl str>::is_char_boundary
  %_6 = call zeroext i1 @"_ZN4core3str21_$LT$impl$u20$str$GT$16is_char_boundary17h694e13b849def0fdE"(ptr align 1 %slice.0, i64 %slice.1, i64 %self.0), !dbg !2959
  br i1 %_6, label %bb3, label %bb7, !dbg !2959

bb9:                                              ; preds = %bb6, %bb7, %bb8
  store ptr null, ptr %_0, align 8, !dbg !2960
  br label %bb10, !dbg !2961

bb7:                                              ; preds = %bb1
  br label %bb9, !dbg !2957

bb3:                                              ; preds = %bb1
; call core::str::<impl str>::is_char_boundary
  %_8 = call zeroext i1 @"_ZN4core3str21_$LT$impl$u20$str$GT$16is_char_boundary17h694e13b849def0fdE"(ptr align 1 %slice.0, i64 %slice.1, i64 %self.1), !dbg !2962
  br i1 %_8, label %bb5, label %bb6, !dbg !2962

bb6:                                              ; preds = %bb3
  br label %bb9, !dbg !2957

bb5:                                              ; preds = %bb3
  store i64 %self.0, ptr %self.dbg.spill1, align 8, !dbg !2963
  call void @llvm.dbg.declare(metadata ptr %self.dbg.spill1, metadata !2945, metadata !DIExpression(DW_OP_LLVM_fragment, 0, 64)), !dbg !2964
  call void @llvm.dbg.declare(metadata ptr %self.dbg.spill1, metadata !2950, metadata !DIExpression(DW_OP_LLVM_fragment, 0, 64)), !dbg !2965
  call void @llvm.dbg.declare(metadata ptr %self.dbg.spill1, metadata !2966, metadata !DIExpression(DW_OP_LLVM_fragment, 0, 64)), !dbg !2975
  call void @llvm.dbg.declare(metadata ptr %self.dbg.spill1, metadata !2978, metadata !DIExpression()), !dbg !2983
  store i64 %self.1, ptr %self.dbg.spill2, align 8, !dbg !2963
  call void @llvm.dbg.declare(metadata ptr %self.dbg.spill2, metadata !2945, metadata !DIExpression(DW_OP_LLVM_fragment, 64, 64)), !dbg !2964
  call void @llvm.dbg.declare(metadata ptr %self.dbg.spill2, metadata !2950, metadata !DIExpression(DW_OP_LLVM_fragment, 64, 64)), !dbg !2965
  call void @llvm.dbg.declare(metadata ptr %self.dbg.spill2, metadata !2966, metadata !DIExpression(DW_OP_LLVM_fragment, 64, 64)), !dbg !2975
  %4 = getelementptr inbounds { ptr, i64 }, ptr %slice.dbg.spill3, i32 0, i32 0, !dbg !2985
  store ptr %slice.0, ptr %4, align 8, !dbg !2985
  %5 = getelementptr inbounds { ptr, i64 }, ptr %slice.dbg.spill3, i32 0, i32 1, !dbg !2985
  store i64 %slice.1, ptr %5, align 8, !dbg !2985
  call void @llvm.dbg.declare(metadata ptr %slice.dbg.spill3, metadata !2946, metadata !DIExpression()), !dbg !2986
  call void @llvm.dbg.declare(metadata ptr %slice.dbg.spill3, metadata !2974, metadata !DIExpression()), !dbg !2975
  call void @llvm.dbg.declare(metadata ptr %slice.dbg.spill3, metadata !2987, metadata !DIExpression()), !dbg !2991
  call void @llvm.dbg.declare(metadata ptr %slice.dbg.spill3, metadata !2993, metadata !DIExpression()), !dbg !2997
  call void @llvm.dbg.declare(metadata ptr %slice.dbg.spill3, metadata !2999, metadata !DIExpression()), !dbg !3003
  store ptr %slice.0, ptr %self.dbg.spill4, align 8, !dbg !3005
  call void @llvm.dbg.declare(metadata ptr %self.dbg.spill4, metadata !2982, metadata !DIExpression()), !dbg !3006
  %ptr = getelementptr inbounds i8, ptr %slice.0, i64 %self.0, !dbg !3007
  store ptr %ptr, ptr %ptr.dbg.spill, align 8, !dbg !3007
  call void @llvm.dbg.declare(metadata ptr %ptr.dbg.spill, metadata !2948, metadata !DIExpression()), !dbg !3008
  call void @llvm.dbg.declare(metadata ptr %ptr.dbg.spill, metadata !3009, metadata !DIExpression()), !dbg !3014
  call void @llvm.dbg.declare(metadata ptr %ptr.dbg.spill, metadata !3016, metadata !DIExpression()), !dbg !3020
  %len = sub i64 %self.1, %self.0, !dbg !3022
  store i64 %len, ptr %len.dbg.spill, align 8, !dbg !3022
  call void @llvm.dbg.declare(metadata ptr %len.dbg.spill, metadata !2952, metadata !DIExpression()), !dbg !3023
  call void @llvm.dbg.declare(metadata ptr %len.dbg.spill, metadata !3013, metadata !DIExpression()), !dbg !3024
  call void @llvm.dbg.declare(metadata ptr %len.dbg.spill, metadata !3025, metadata !DIExpression()), !dbg !3030
  store ptr %ptr, ptr %data_address.dbg.spill, align 8, !dbg !3032
  call void @llvm.dbg.declare(metadata ptr %data_address.dbg.spill, metadata !3029, metadata !DIExpression()), !dbg !3033
  store ptr %ptr, ptr %_20, align 8, !dbg !3034
  %6 = getelementptr inbounds { ptr, i64 }, ptr %_20, i32 0, i32 1, !dbg !3034
  store i64 %len, ptr %6, align 8, !dbg !3034
  %7 = getelementptr inbounds { ptr, i64 }, ptr %_20, i32 0, i32 0, !dbg !3035
  %8 = load ptr, ptr %7, align 8, !dbg !3035, !noundef !23
  %9 = getelementptr inbounds { ptr, i64 }, ptr %_20, i32 0, i32 1, !dbg !3035
  %10 = load i64, ptr %9, align 8, !dbg !3035, !noundef !23
  %11 = getelementptr inbounds { ptr, i64 }, ptr %_19, i32 0, i32 0, !dbg !3035
  store ptr %8, ptr %11, align 8, !dbg !3035
  %12 = getelementptr inbounds { ptr, i64 }, ptr %_19, i32 0, i32 1, !dbg !3035
  store i64 %10, ptr %12, align 8, !dbg !3035
  %13 = getelementptr inbounds { ptr, i64 }, ptr %_19, i32 0, i32 0, !dbg !3035
  %_17.0 = load ptr, ptr %13, align 8, !dbg !3035, !noundef !23
  %14 = getelementptr inbounds { ptr, i64 }, ptr %_19, i32 0, i32 1, !dbg !3035
  %_17.1 = load i64, ptr %14, align 8, !dbg !3035, !noundef !23
  %15 = getelementptr inbounds { ptr, i64 }, ptr %_0, i32 0, i32 0, !dbg !3036
  store ptr %_17.0, ptr %15, align 8, !dbg !3036
  %16 = getelementptr inbounds { ptr, i64 }, ptr %_0, i32 0, i32 1, !dbg !3036
  store i64 %_17.1, ptr %16, align 8, !dbg !3036
  br label %bb10, !dbg !2961

bb10:                                             ; preds = %bb5, %bb9
  %17 = getelementptr inbounds { ptr, i64 }, ptr %_0, i32 0, i32 0, !dbg !3037
  %18 = load ptr, ptr %17, align 8, !dbg !3037, !align !673, !noundef !23
  %19 = getelementptr inbounds { ptr, i64 }, ptr %_0, i32 0, i32 1, !dbg !3037
  %20 = load i64, ptr %19, align 8, !dbg !3037
  %21 = insertvalue { ptr, i64 } poison, ptr %18, 0, !dbg !3037
  %22 = insertvalue { ptr, i64 } %21, i64 %20, 1, !dbg !3037
  ret { ptr, i64 } %22, !dbg !3037
}

; core::str::traits::<impl core::slice::index::SliceIndex<str> for core::ops::range::RangeFrom<usize>>::get
; Function Attrs: inlinehint nonlazybind uwtable
define internal { ptr, i64 } @"_ZN4core3str6traits112_$LT$impl$u20$core..slice..index..SliceIndex$LT$str$GT$$u20$for$u20$core..ops..range..RangeFrom$LT$usize$GT$$GT$3get17he148e9b45233f35cE"(i64 %self, ptr align 1 %slice.0, i64 %slice.1) unnamed_addr #0 !dbg !3038 {
start:
  %data_address.dbg.spill = alloca ptr, align 8
  %len.dbg.spill6 = alloca i64, align 8
  %ptr.dbg.spill = alloca ptr, align 8
  %self.dbg.spill4 = alloca ptr, align 8
  %slice.dbg.spill3 = alloca { ptr, i64 }, align 8
  %len.dbg.spill = alloca i64, align 8
  %self.dbg.spill2 = alloca { ptr, i64 }, align 8
  %self.dbg.spill1 = alloca i64, align 8
  %slice.dbg.spill = alloca { ptr, i64 }, align 8
  %self.dbg.spill = alloca i64, align 8
  %_18 = alloca { ptr, i64 }, align 8
  %_17 = alloca %"core::ptr::metadata::PtrRepr<[u8]>", align 8
  %_10 = alloca %"core::ptr::metadata::PtrRepr<[u8]>", align 8
  %_0 = alloca { ptr, i64 }, align 8
  store i64 %self, ptr %self.dbg.spill, align 8
  call void @llvm.dbg.declare(metadata ptr %self.dbg.spill, metadata !3046, metadata !DIExpression()), !dbg !3048
  %0 = getelementptr inbounds { ptr, i64 }, ptr %slice.dbg.spill, i32 0, i32 0
  store ptr %slice.0, ptr %0, align 8
  %1 = getelementptr inbounds { ptr, i64 }, ptr %slice.dbg.spill, i32 0, i32 1
  store i64 %slice.1, ptr %1, align 8
  call void @llvm.dbg.declare(metadata ptr %slice.dbg.spill, metadata !3047, metadata !DIExpression()), !dbg !3049
  call void @llvm.dbg.declare(metadata ptr %slice.dbg.spill, metadata !3050, metadata !DIExpression()), !dbg !3059
  call void @llvm.dbg.declare(metadata ptr %slice.dbg.spill, metadata !3061, metadata !DIExpression()), !dbg !3074
; call core::str::<impl str>::is_char_boundary
  %_3 = call zeroext i1 @"_ZN4core3str21_$LT$impl$u20$str$GT$16is_char_boundary17h694e13b849def0fdE"(ptr align 1 %slice.0, i64 %slice.1, i64 %self), !dbg !3076
  br i1 %_3, label %bb2, label %bb3, !dbg !3076

bb3:                                              ; preds = %start
  store ptr null, ptr %_0, align 8, !dbg !3077
  br label %bb4, !dbg !3078

bb2:                                              ; preds = %start
  store i64 %self, ptr %self.dbg.spill1, align 8, !dbg !3079
  call void @llvm.dbg.declare(metadata ptr %self.dbg.spill1, metadata !3056, metadata !DIExpression()), !dbg !3080
  call void @llvm.dbg.declare(metadata ptr %self.dbg.spill1, metadata !3065, metadata !DIExpression(DW_OP_LLVM_fragment, 0, 64)), !dbg !3081
  call void @llvm.dbg.declare(metadata ptr %self.dbg.spill1, metadata !3070, metadata !DIExpression(DW_OP_LLVM_fragment, 0, 64)), !dbg !3082
  call void @llvm.dbg.declare(metadata ptr %self.dbg.spill1, metadata !3083, metadata !DIExpression(DW_OP_LLVM_fragment, 0, 64)), !dbg !3089
  call void @llvm.dbg.declare(metadata ptr %self.dbg.spill1, metadata !3092, metadata !DIExpression()), !dbg !3097
  %2 = getelementptr inbounds { ptr, i64 }, ptr %self.dbg.spill2, i32 0, i32 0, !dbg !3099
  store ptr %slice.0, ptr %2, align 8, !dbg !3099
  %3 = getelementptr inbounds { ptr, i64 }, ptr %self.dbg.spill2, i32 0, i32 1, !dbg !3099
  store i64 %slice.1, ptr %3, align 8, !dbg !3099
  call void @llvm.dbg.declare(metadata ptr %self.dbg.spill2, metadata !3100, metadata !DIExpression()), !dbg !3106
  call void @llvm.dbg.declare(metadata ptr %self.dbg.spill2, metadata !3108, metadata !DIExpression()), !dbg !3114
  %4 = getelementptr inbounds { ptr, i64 }, ptr %_10, i32 0, i32 0, !dbg !3116
  store ptr %slice.0, ptr %4, align 8, !dbg !3116
  %5 = getelementptr inbounds { ptr, i64 }, ptr %_10, i32 0, i32 1, !dbg !3116
  store i64 %slice.1, ptr %5, align 8, !dbg !3116
  %6 = getelementptr inbounds { ptr, i64 }, ptr %_10, i32 0, i32 1, !dbg !3116
  %len = load i64, ptr %6, align 8, !dbg !3116, !noundef !23
  store i64 %len, ptr %len.dbg.spill, align 8, !dbg !3116
  call void @llvm.dbg.declare(metadata ptr %len.dbg.spill, metadata !3057, metadata !DIExpression()), !dbg !3117
  call void @llvm.dbg.declare(metadata ptr %len.dbg.spill, metadata !3065, metadata !DIExpression(DW_OP_LLVM_fragment, 64, 64)), !dbg !3081
  call void @llvm.dbg.declare(metadata ptr %len.dbg.spill, metadata !3070, metadata !DIExpression(DW_OP_LLVM_fragment, 64, 64)), !dbg !3082
  call void @llvm.dbg.declare(metadata ptr %len.dbg.spill, metadata !3083, metadata !DIExpression(DW_OP_LLVM_fragment, 64, 64)), !dbg !3089
  %7 = getelementptr inbounds { ptr, i64 }, ptr %slice.dbg.spill3, i32 0, i32 0, !dbg !3118
  store ptr %slice.0, ptr %7, align 8, !dbg !3118
  %8 = getelementptr inbounds { ptr, i64 }, ptr %slice.dbg.spill3, i32 0, i32 1, !dbg !3118
  store i64 %slice.1, ptr %8, align 8, !dbg !3118
  call void @llvm.dbg.declare(metadata ptr %slice.dbg.spill3, metadata !3066, metadata !DIExpression()), !dbg !3119
  call void @llvm.dbg.declare(metadata ptr %slice.dbg.spill3, metadata !3088, metadata !DIExpression()), !dbg !3089
  call void @llvm.dbg.declare(metadata ptr %slice.dbg.spill3, metadata !3104, metadata !DIExpression()), !dbg !3120
  call void @llvm.dbg.declare(metadata ptr %slice.dbg.spill3, metadata !3112, metadata !DIExpression()), !dbg !3122
  call void @llvm.dbg.declare(metadata ptr %slice.dbg.spill3, metadata !3124, metadata !DIExpression()), !dbg !3128
  store ptr %slice.0, ptr %self.dbg.spill4, align 8, !dbg !3130
  call void @llvm.dbg.declare(metadata ptr %self.dbg.spill4, metadata !3096, metadata !DIExpression()), !dbg !3131
  %ptr = getelementptr inbounds i8, ptr %slice.0, i64 %self, !dbg !3132
  store ptr %ptr, ptr %ptr.dbg.spill, align 8, !dbg !3132
  call void @llvm.dbg.declare(metadata ptr %ptr.dbg.spill, metadata !3068, metadata !DIExpression()), !dbg !3133
  call void @llvm.dbg.declare(metadata ptr %ptr.dbg.spill, metadata !3134, metadata !DIExpression()), !dbg !3139
  call void @llvm.dbg.declare(metadata ptr %ptr.dbg.spill, metadata !3141, metadata !DIExpression()), !dbg !3145
  %len5 = sub i64 %len, %self, !dbg !3147
  store i64 %len5, ptr %len.dbg.spill6, align 8, !dbg !3147
  call void @llvm.dbg.declare(metadata ptr %len.dbg.spill6, metadata !3072, metadata !DIExpression()), !dbg !3148
  call void @llvm.dbg.declare(metadata ptr %len.dbg.spill6, metadata !3138, metadata !DIExpression()), !dbg !3149
  call void @llvm.dbg.declare(metadata ptr %len.dbg.spill6, metadata !3150, metadata !DIExpression()), !dbg !3155
  store ptr %ptr, ptr %data_address.dbg.spill, align 8, !dbg !3157
  call void @llvm.dbg.declare(metadata ptr %data_address.dbg.spill, metadata !3154, metadata !DIExpression()), !dbg !3158
  store ptr %ptr, ptr %_18, align 8, !dbg !3159
  %9 = getelementptr inbounds { ptr, i64 }, ptr %_18, i32 0, i32 1, !dbg !3159
  store i64 %len5, ptr %9, align 8, !dbg !3159
  %10 = getelementptr inbounds { ptr, i64 }, ptr %_18, i32 0, i32 0, !dbg !3160
  %11 = load ptr, ptr %10, align 8, !dbg !3160, !noundef !23
  %12 = getelementptr inbounds { ptr, i64 }, ptr %_18, i32 0, i32 1, !dbg !3160
  %13 = load i64, ptr %12, align 8, !dbg !3160, !noundef !23
  %14 = getelementptr inbounds { ptr, i64 }, ptr %_17, i32 0, i32 0, !dbg !3160
  store ptr %11, ptr %14, align 8, !dbg !3160
  %15 = getelementptr inbounds { ptr, i64 }, ptr %_17, i32 0, i32 1, !dbg !3160
  store i64 %13, ptr %15, align 8, !dbg !3160
  %16 = getelementptr inbounds { ptr, i64 }, ptr %_17, i32 0, i32 0, !dbg !3160
  %_15.0 = load ptr, ptr %16, align 8, !dbg !3160, !noundef !23
  %17 = getelementptr inbounds { ptr, i64 }, ptr %_17, i32 0, i32 1, !dbg !3160
  %_15.1 = load i64, ptr %17, align 8, !dbg !3160, !noundef !23
  %18 = getelementptr inbounds { ptr, i64 }, ptr %_0, i32 0, i32 0, !dbg !3161
  store ptr %_15.0, ptr %18, align 8, !dbg !3161
  %19 = getelementptr inbounds { ptr, i64 }, ptr %_0, i32 0, i32 1, !dbg !3161
  store i64 %_15.1, ptr %19, align 8, !dbg !3161
  br label %bb4, !dbg !3078

bb4:                                              ; preds = %bb2, %bb3
  %20 = getelementptr inbounds { ptr, i64 }, ptr %_0, i32 0, i32 0, !dbg !3162
  %21 = load ptr, ptr %20, align 8, !dbg !3162, !align !673, !noundef !23
  %22 = getelementptr inbounds { ptr, i64 }, ptr %_0, i32 0, i32 1, !dbg !3162
  %23 = load i64, ptr %22, align 8, !dbg !3162
  %24 = insertvalue { ptr, i64 } poison, ptr %21, 0, !dbg !3162
  %25 = insertvalue { ptr, i64 } %24, i64 %23, 1, !dbg !3162
  ret { ptr, i64 } %25, !dbg !3162
}

; core::str::pattern::TwoWaySearcher::next
; Function Attrs: inlinehint nonlazybind uwtable
define internal void @_ZN4core3str7pattern14TwoWaySearcher4next17h2ff037de849f2bc7E(ptr sret(%"core::option::Option<(usize, usize)>") align 8 %_0, ptr align 8 %self, ptr align 1 %haystack.0, i64 %haystack.1, ptr align 1 %needle.0, i64 %needle.1, i1 zeroext %long_period) unnamed_addr #0 !dbg !3163 {
start:
  %i.dbg.spill14 = alloca i64, align 8
  %i.dbg.spill = alloca i64, align 8
  %match_pos.dbg.spill = alloca i64, align 8
  %self.dbg.spill11 = alloca ptr, align 8
  %self.dbg.spill10 = alloca ptr, align 8
  %old.dbg.spill = alloca i64, align 8
  %other.dbg.spill = alloca ptr, align 8
  %self.dbg.spill9 = alloca ptr, align 8
  %self.dbg.spill8 = alloca ptr, align 8
  %v2.dbg.spill = alloca i64, align 8
  %v1.dbg.spill = alloca i64, align 8
  %tail_byte.dbg.spill = alloca i8, align 1
  %self.dbg.spill7 = alloca ptr, align 8
  %index.dbg.spill = alloca i64, align 8
  %needle_last.dbg.spill = alloca i64, align 8
  %old_pos.dbg.spill = alloca i64, align 8
  %long_period.dbg.spill = alloca i8, align 1
  %needle.dbg.spill = alloca { ptr, i64 }, align 8
  %haystack.dbg.spill = alloca { ptr, i64 }, align 8
  %self.dbg.spill = alloca ptr, align 8
  %_49 = alloca { i64, i64 }, align 8
  %iter6 = alloca { i64, i64 }, align 8
  %self5 = alloca { i64, i64 }, align 8
  %self4 = alloca { i64, i64 }, align 8
  %start3 = alloca i64, align 8
  %_27 = alloca { i64, i64 }, align 8
  %iter = alloca { i64, i64 }, align 8
  %self2 = alloca { i64, i64 }, align 8
  %start1 = alloca i64, align 8
  %_8 = alloca ptr, align 8
  store ptr %self, ptr %self.dbg.spill, align 8
  call void @llvm.dbg.declare(metadata ptr %self.dbg.spill, metadata !3186, metadata !DIExpression()), !dbg !3219
  call void @llvm.dbg.declare(metadata ptr %self.dbg.spill, metadata !3220, metadata !DIExpression()), !dbg !3229
  %0 = getelementptr inbounds { ptr, i64 }, ptr %haystack.dbg.spill, i32 0, i32 0
  store ptr %haystack.0, ptr %0, align 8
  %1 = getelementptr inbounds { ptr, i64 }, ptr %haystack.dbg.spill, i32 0, i32 1
  store i64 %haystack.1, ptr %1, align 8
  call void @llvm.dbg.declare(metadata ptr %haystack.dbg.spill, metadata !3187, metadata !DIExpression()), !dbg !3231
  call void @llvm.dbg.declare(metadata ptr %haystack.dbg.spill, metadata !3232, metadata !DIExpression()), !dbg !3237
  call void @llvm.dbg.declare(metadata ptr %haystack.dbg.spill, metadata !3239, metadata !DIExpression()), !dbg !3244
  call void @llvm.dbg.declare(metadata ptr %haystack.dbg.spill, metadata !3246, metadata !DIExpression()), !dbg !3253
  call void @llvm.dbg.declare(metadata ptr %haystack.dbg.spill, metadata !3255, metadata !DIExpression()), !dbg !3261
  call void @llvm.dbg.declare(metadata ptr %haystack.dbg.spill, metadata !3264, metadata !DIExpression()), !dbg !3268
  call void @llvm.dbg.declare(metadata ptr %haystack.dbg.spill, metadata !3270, metadata !DIExpression()), !dbg !3274
  call void @llvm.dbg.declare(metadata ptr %haystack.dbg.spill, metadata !3276, metadata !DIExpression()), !dbg !3280
  %2 = getelementptr inbounds { ptr, i64 }, ptr %needle.dbg.spill, i32 0, i32 0
  store ptr %needle.0, ptr %2, align 8
  %3 = getelementptr inbounds { ptr, i64 }, ptr %needle.dbg.spill, i32 0, i32 1
  store i64 %needle.1, ptr %3, align 8
  call void @llvm.dbg.declare(metadata ptr %needle.dbg.spill, metadata !3188, metadata !DIExpression()), !dbg !3282
  %4 = zext i1 %long_period to i8
  store i8 %4, ptr %long_period.dbg.spill, align 1
  call void @llvm.dbg.declare(metadata ptr %long_period.dbg.spill, metadata !3189, metadata !DIExpression()), !dbg !3283
  call void @llvm.dbg.declare(metadata ptr %start1, metadata !3198, metadata !DIExpression()), !dbg !3284
  call void @llvm.dbg.declare(metadata ptr %self2, metadata !3285, metadata !DIExpression()), !dbg !3295
  call void @llvm.dbg.declare(metadata ptr %iter, metadata !3200, metadata !DIExpression()), !dbg !3297
  call void @llvm.dbg.declare(metadata ptr %start3, metadata !3204, metadata !DIExpression()), !dbg !3298
  call void @llvm.dbg.declare(metadata ptr %self4, metadata !3299, metadata !DIExpression()), !dbg !3307
  call void @llvm.dbg.declare(metadata ptr %self5, metadata !3309, metadata !DIExpression()), !dbg !3320
  call void @llvm.dbg.declare(metadata ptr %self5, metadata !3322, metadata !DIExpression()), !dbg !3328
  call void @llvm.dbg.declare(metadata ptr %iter6, metadata !3206, metadata !DIExpression()), !dbg !3330
  %5 = getelementptr inbounds %"core::str::pattern::TwoWaySearcher", ptr %self, i32 0, i32 4, !dbg !3331
  %old_pos = load i64, ptr %5, align 8, !dbg !3331, !noundef !23
  store i64 %old_pos, ptr %old_pos.dbg.spill, align 8, !dbg !3331
  call void @llvm.dbg.declare(metadata ptr %old_pos.dbg.spill, metadata !3190, metadata !DIExpression()), !dbg !3332
  %needle_last = sub i64 %needle.1, 1, !dbg !3333
  store i64 %needle_last, ptr %needle_last.dbg.spill, align 8, !dbg !3333
  call void @llvm.dbg.declare(metadata ptr %needle_last.dbg.spill, metadata !3192, metadata !DIExpression()), !dbg !3334
  br label %bb1, !dbg !3335

bb1:                                              ; preds = %bb42, %bb14, %bb13, %start
  %6 = getelementptr inbounds %"core::str::pattern::TwoWaySearcher", ptr %self, i32 0, i32 4, !dbg !3336
  %_10 = load i64, ptr %6, align 8, !dbg !3336, !noundef !23
  %index = add i64 %_10, %needle_last, !dbg !3336
  store i64 %index, ptr %index.dbg.spill, align 8, !dbg !3336
  call void @llvm.dbg.declare(metadata ptr %index.dbg.spill, metadata !3236, metadata !DIExpression()), !dbg !3337
  call void @llvm.dbg.declare(metadata ptr %index.dbg.spill, metadata !3243, metadata !DIExpression()), !dbg !3338
  call void @llvm.dbg.declare(metadata ptr %index.dbg.spill, metadata !3250, metadata !DIExpression()), !dbg !3339
  call void @llvm.dbg.declare(metadata ptr %index.dbg.spill, metadata !3251, metadata !DIExpression()), !dbg !3340
  call void @llvm.dbg.declare(metadata ptr %index.dbg.spill, metadata !3260, metadata !DIExpression()), !dbg !3261
  call void @llvm.dbg.declare(metadata ptr %index.dbg.spill, metadata !3341, metadata !DIExpression()), !dbg !3346
  %_70 = icmp ult i64 %index, %haystack.1, !dbg !3348
  br i1 %_70, label %bb44, label %bb45, !dbg !3348

bb45:                                             ; preds = %bb1
  store ptr null, ptr %_8, align 8, !dbg !3349
  br label %bb46, !dbg !3350

bb44:                                             ; preds = %bb1
  store ptr %haystack.0, ptr %self.dbg.spill7, align 8, !dbg !3351
  call void @llvm.dbg.declare(metadata ptr %self.dbg.spill7, metadata !3345, metadata !DIExpression()), !dbg !3352
  %_73 = getelementptr inbounds i8, ptr %haystack.0, i64 %index, !dbg !3353
  store ptr %_73, ptr %_8, align 8, !dbg !3354
  br label %bb46, !dbg !3350

bb46:                                             ; preds = %bb44, %bb45
  %7 = load ptr, ptr %_8, align 8, !dbg !3355, !noundef !23
  %8 = ptrtoint ptr %7 to i64, !dbg !3355
  %9 = icmp eq i64 %8, 0, !dbg !3355
  %_11 = select i1 %9, i64 0, i64 1, !dbg !3355
  %10 = icmp eq i64 %_11, 0, !dbg !3356
  br i1 %10, label %bb2, label %bb4, !dbg !3356

bb2:                                              ; preds = %bb46
  %11 = getelementptr inbounds %"core::str::pattern::TwoWaySearcher", ptr %self, i32 0, i32 4, !dbg !3357
  store i64 %haystack.1, ptr %11, align 8, !dbg !3357
  %12 = getelementptr inbounds %"core::str::pattern::TwoWaySearcher", ptr %self, i32 0, i32 4, !dbg !3358
  %_14 = load i64, ptr %12, align 8, !dbg !3358, !noundef !23
; call <core::str::pattern::MatchOnly as core::str::pattern::TwoWayStrategy>::rejecting
  call void @"_ZN84_$LT$core..str..pattern..MatchOnly$u20$as$u20$core..str..pattern..TwoWayStrategy$GT$9rejecting17hfe456fecc0b9ef1cE"(ptr sret(%"core::option::Option<(usize, usize)>") align 8 %_0, i64 %old_pos, i64 %_14), !dbg !3359
  br label %bb43, !dbg !3360

bb4:                                              ; preds = %bb46
  %_69 = load ptr, ptr %_8, align 8, !dbg !3362, !nonnull !23, !align !673, !noundef !23
  %tail_byte = load i8, ptr %_69, align 1, !dbg !3362, !noundef !23
  store i8 %tail_byte, ptr %tail_byte.dbg.spill, align 1, !dbg !3362
  call void @llvm.dbg.declare(metadata ptr %tail_byte.dbg.spill, metadata !3194, metadata !DIExpression()), !dbg !3363
  call void @llvm.dbg.declare(metadata ptr %tail_byte.dbg.spill, metadata !3196, metadata !DIExpression()), !dbg !3364
  call void @llvm.dbg.declare(metadata ptr %tail_byte.dbg.spill, metadata !3228, metadata !DIExpression()), !dbg !3365
; call <core::str::pattern::MatchOnly as core::str::pattern::TwoWayStrategy>::use_early_reject
  %_15 = call zeroext i1 @"_ZN84_$LT$core..str..pattern..MatchOnly$u20$as$u20$core..str..pattern..TwoWayStrategy$GT$16use_early_reject17h47d28c4d2257d7f1E"(), !dbg !3366
  br i1 %_15, label %bb7, label %bb11, !dbg !3366

bb43:                                             ; preds = %bb8, %bb40, %bb2
  ret void, !dbg !3367

bb11:                                             ; preds = %bb10, %bb4
  %13 = getelementptr inbounds %"core::str::pattern::TwoWaySearcher", ptr %self, i32 0, i32 3, !dbg !3368
  %_78 = load i64, ptr %13, align 8, !dbg !3368, !noundef !23
  %_80 = and i8 %tail_byte, 63, !dbg !3369
  %_79 = zext i8 %_80 to i64, !dbg !3370
  %14 = and i64 %_79, 63, !dbg !3371
  %_77 = lshr i64 %_78, %14, !dbg !3371
  %_76 = and i64 %_77, 1, !dbg !3371
  %15 = icmp eq i64 %_76, 0, !dbg !3372
  br i1 %15, label %bb13, label %bb12, !dbg !3372

bb7:                                              ; preds = %bb4
  %16 = getelementptr inbounds %"core::str::pattern::TwoWaySearcher", ptr %self, i32 0, i32 4, !dbg !3373
  %_17 = load i64, ptr %16, align 8, !dbg !3373, !noundef !23
  %_16 = icmp ne i64 %old_pos, %_17, !dbg !3374
  br i1 %_16, label %bb8, label %bb10, !dbg !3374

bb10:                                             ; preds = %bb7
  br label %bb11, !dbg !3375

bb8:                                              ; preds = %bb7
  %17 = getelementptr inbounds %"core::str::pattern::TwoWaySearcher", ptr %self, i32 0, i32 4, !dbg !3377
  %_18 = load i64, ptr %17, align 8, !dbg !3377, !noundef !23
; call <core::str::pattern::MatchOnly as core::str::pattern::TwoWayStrategy>::rejecting
  call void @"_ZN84_$LT$core..str..pattern..MatchOnly$u20$as$u20$core..str..pattern..TwoWayStrategy$GT$9rejecting17hfe456fecc0b9ef1cE"(ptr sret(%"core::option::Option<(usize, usize)>") align 8 %_0, i64 %old_pos, i64 %_18), !dbg !3378
  br label %bb43, !dbg !3375

bb13:                                             ; preds = %bb11
  %18 = getelementptr inbounds %"core::str::pattern::TwoWaySearcher", ptr %self, i32 0, i32 4, !dbg !3379
  %19 = getelementptr inbounds %"core::str::pattern::TwoWaySearcher", ptr %self, i32 0, i32 4, !dbg !3379
  %20 = load i64, ptr %19, align 8, !dbg !3379, !noundef !23
  %21 = add i64 %20, %needle.1, !dbg !3379
  store i64 %21, ptr %18, align 8, !dbg !3379
  br i1 %long_period, label %bb1, label %bb14, !dbg !3380

bb12:                                             ; preds = %bb11
  br i1 %long_period, label %bb15, label %bb16, !dbg !3381

bb14:                                             ; preds = %bb13
  %22 = getelementptr inbounds %"core::str::pattern::TwoWaySearcher", ptr %self, i32 0, i32 6, !dbg !3382
  store i64 0, ptr %22, align 8, !dbg !3382
  br label %bb1, !dbg !3383

bb16:                                             ; preds = %bb12
  %v1 = load i64, ptr %self, align 8, !dbg !3384, !noundef !23
  store i64 %v1, ptr %v1.dbg.spill, align 8, !dbg !3384
  call void @llvm.dbg.declare(metadata ptr %v1.dbg.spill, metadata !3385, metadata !DIExpression()), !dbg !3390
  call void @llvm.dbg.declare(metadata ptr %v1.dbg.spill, metadata !3392, metadata !DIExpression()), !dbg !3397
  %23 = getelementptr inbounds %"core::str::pattern::TwoWaySearcher", ptr %self, i32 0, i32 6, !dbg !3399
  %v2 = load i64, ptr %23, align 8, !dbg !3399, !noundef !23
  store i64 %v2, ptr %v2.dbg.spill, align 8, !dbg !3399
  call void @llvm.dbg.declare(metadata ptr %v2.dbg.spill, metadata !3389, metadata !DIExpression()), !dbg !3400
  call void @llvm.dbg.declare(metadata ptr %v2.dbg.spill, metadata !3396, metadata !DIExpression()), !dbg !3401
; call core::cmp::max_by
  %24 = call i64 @_ZN4core3cmp6max_by17hf6a729ffb5e34c21E(i64 %v1, i64 %v2), !dbg !3402
  store i64 %24, ptr %start1, align 8, !dbg !3402
  br label %bb17, !dbg !3403

bb15:                                             ; preds = %bb12
  %25 = load i64, ptr %self, align 8, !dbg !3404, !noundef !23
  store i64 %25, ptr %start1, align 8, !dbg !3404
  br label %bb17, !dbg !3403

bb17:                                             ; preds = %bb15, %bb16
  %_24 = load i64, ptr %start1, align 8, !dbg !3296, !noundef !23
  store i64 %_24, ptr %self2, align 8, !dbg !3296
  %26 = getelementptr inbounds { i64, i64 }, ptr %self2, i32 0, i32 1, !dbg !3296
  store i64 %needle.1, ptr %26, align 8, !dbg !3296
  %27 = getelementptr inbounds { i64, i64 }, ptr %self2, i32 0, i32 0, !dbg !3296
  %28 = load i64, ptr %27, align 8, !dbg !3296, !noundef !23
  %29 = getelementptr inbounds { i64, i64 }, ptr %self2, i32 0, i32 1, !dbg !3296
  %30 = load i64, ptr %29, align 8, !dbg !3296, !noundef !23
  %31 = getelementptr inbounds { i64, i64 }, ptr %iter, i32 0, i32 0, !dbg !3296
  store i64 %28, ptr %31, align 8, !dbg !3296
  %32 = getelementptr inbounds { i64, i64 }, ptr %iter, i32 0, i32 1, !dbg !3296
  store i64 %30, ptr %32, align 8, !dbg !3296
  br label %bb18, !dbg !3405

bb18:                                             ; preds = %bb26, %bb17
  store ptr %iter, ptr %self.dbg.spill8, align 8, !dbg !3297
  call void @llvm.dbg.declare(metadata ptr %self.dbg.spill8, metadata !3406, metadata !DIExpression()), !dbg !3416
  call void @llvm.dbg.declare(metadata ptr %self.dbg.spill8, metadata !3417, metadata !DIExpression()), !dbg !3424
  store ptr %iter, ptr %self.dbg.spill9, align 8, !dbg !3426
  call void @llvm.dbg.declare(metadata ptr %self.dbg.spill9, metadata !3427, metadata !DIExpression()), !dbg !3435
  %other = getelementptr inbounds { i64, i64 }, ptr %iter, i32 0, i32 1, !dbg !3436
  store ptr %other, ptr %other.dbg.spill, align 8, !dbg !3436
  call void @llvm.dbg.declare(metadata ptr %other.dbg.spill, metadata !3434, metadata !DIExpression()), !dbg !3435
  %_86 = load i64, ptr %iter, align 8, !dbg !3435, !noundef !23
  %33 = getelementptr inbounds { i64, i64 }, ptr %iter, i32 0, i32 1, !dbg !3435
  %_87 = load i64, ptr %33, align 8, !dbg !3435, !noundef !23
  %_81 = icmp ult i64 %_86, %_87, !dbg !3435
  br i1 %_81, label %bb48, label %bb50, !dbg !3426

bb50:                                             ; preds = %bb18
  store i64 0, ptr %_27, align 8, !dbg !3437
  br label %bb51, !dbg !3438

bb48:                                             ; preds = %bb18
  %old = load i64, ptr %iter, align 8, !dbg !3439, !noundef !23
  store i64 %old, ptr %old.dbg.spill, align 8, !dbg !3439
  call void @llvm.dbg.declare(metadata ptr %old.dbg.spill, metadata !3422, metadata !DIExpression()), !dbg !3440
; call <usize as core::iter::range::Step>::forward_unchecked
  %_85 = call i64 @"_ZN49_$LT$usize$u20$as$u20$core..iter..range..Step$GT$17forward_unchecked17h5ef0ea640400f23dE"(i64 %old, i64 1), !dbg !3441
  store i64 %_85, ptr %iter, align 8, !dbg !3442
  %34 = getelementptr inbounds { i64, i64 }, ptr %_27, i32 0, i32 1, !dbg !3443
  store i64 %old, ptr %34, align 8, !dbg !3443
  store i64 1, ptr %_27, align 8, !dbg !3443
  br label %bb51, !dbg !3438

bb51:                                             ; preds = %bb48, %bb50
  %_29 = load i64, ptr %_27, align 8, !dbg !3297, !range !465, !noundef !23
  %35 = icmp eq i64 %_29, 0, !dbg !3297
  br i1 %35, label %bb20, label %bb19, !dbg !3297

bb20:                                             ; preds = %bb51
  br i1 %long_period, label %bb27, label %bb28, !dbg !3444

bb19:                                             ; preds = %bb51
  %36 = getelementptr inbounds { i64, i64 }, ptr %_27, i32 0, i32 1, !dbg !3445
  %i13 = load i64, ptr %36, align 8, !dbg !3445, !noundef !23
  store i64 %i13, ptr %i.dbg.spill14, align 8, !dbg !3445
  call void @llvm.dbg.declare(metadata ptr %i.dbg.spill14, metadata !3202, metadata !DIExpression()), !dbg !3446
  %_34 = icmp ult i64 %i13, %needle.1, !dbg !3447
  %37 = call i1 @llvm.expect.i1(i1 %_34, i1 true), !dbg !3447
  br i1 %37, label %bb21, label %panic15, !dbg !3447

bb28:                                             ; preds = %bb20
  %38 = getelementptr inbounds %"core::str::pattern::TwoWaySearcher", ptr %self, i32 0, i32 6, !dbg !3448
  %39 = load i64, ptr %38, align 8, !dbg !3448, !noundef !23
  store i64 %39, ptr %start3, align 8, !dbg !3448
  br label %bb29, !dbg !3449

bb27:                                             ; preds = %bb20
  store i64 0, ptr %start3, align 8, !dbg !3450
  br label %bb29, !dbg !3449

bb29:                                             ; preds = %bb27, %bb28
  %_46 = load i64, ptr %start3, align 8, !dbg !3451, !noundef !23
  %_47 = load i64, ptr %self, align 8, !dbg !3452, !noundef !23
  store i64 %_46, ptr %self5, align 8, !dbg !3308
  %40 = getelementptr inbounds { i64, i64 }, ptr %self5, i32 0, i32 1, !dbg !3308
  store i64 %_47, ptr %40, align 8, !dbg !3308
  %41 = getelementptr inbounds { i64, i64 }, ptr %self5, i32 0, i32 0, !dbg !3453
  %42 = load i64, ptr %41, align 8, !dbg !3453, !noundef !23
  %43 = getelementptr inbounds { i64, i64 }, ptr %self5, i32 0, i32 1, !dbg !3453
  %44 = load i64, ptr %43, align 8, !dbg !3453, !noundef !23
  %45 = getelementptr inbounds { i64, i64 }, ptr %self4, i32 0, i32 0, !dbg !3453
  store i64 %42, ptr %45, align 8, !dbg !3453
  %46 = getelementptr inbounds { i64, i64 }, ptr %self4, i32 0, i32 1, !dbg !3453
  store i64 %44, ptr %46, align 8, !dbg !3453
  %47 = getelementptr inbounds { i64, i64 }, ptr %self4, i32 0, i32 0, !dbg !3308
  %48 = load i64, ptr %47, align 8, !dbg !3308, !noundef !23
  %49 = getelementptr inbounds { i64, i64 }, ptr %self4, i32 0, i32 1, !dbg !3308
  %50 = load i64, ptr %49, align 8, !dbg !3308, !noundef !23
  %51 = getelementptr inbounds { i64, i64 }, ptr %iter6, i32 0, i32 0, !dbg !3308
  store i64 %48, ptr %51, align 8, !dbg !3308
  %52 = getelementptr inbounds { i64, i64 }, ptr %iter6, i32 0, i32 1, !dbg !3308
  store i64 %50, ptr %52, align 8, !dbg !3308
  br label %bb30, !dbg !3454

bb30:                                             ; preds = %bb38, %bb29
  store ptr %iter6, ptr %self.dbg.spill10, align 8, !dbg !3330
  call void @llvm.dbg.declare(metadata ptr %self.dbg.spill10, metadata !3455, metadata !DIExpression()), !dbg !3463
  store ptr %iter6, ptr %self.dbg.spill11, align 8, !dbg !3464
  call void @llvm.dbg.declare(metadata ptr %self.dbg.spill11, metadata !3465, metadata !DIExpression()), !dbg !3470
; call <core::ops::range::Range<T> as core::iter::range::RangeIteratorImpl>::spec_next_back
  %53 = call { i64, i64 } @"_ZN89_$LT$core..ops..range..Range$LT$T$GT$$u20$as$u20$core..iter..range..RangeIteratorImpl$GT$14spec_next_back17hee7bb09b2a907e82E"(ptr align 8 %iter6), !dbg !3472
  store { i64, i64 } %53, ptr %_49, align 8, !dbg !3472
  %_51 = load i64, ptr %_49, align 8, !dbg !3330, !range !465, !noundef !23
  %54 = icmp eq i64 %_51, 0, !dbg !3330
  br i1 %54, label %bb32, label %bb31, !dbg !3330

bb32:                                             ; preds = %bb30
  %55 = getelementptr inbounds %"core::str::pattern::TwoWaySearcher", ptr %self, i32 0, i32 4, !dbg !3473
  %match_pos = load i64, ptr %55, align 8, !dbg !3473, !noundef !23
  store i64 %match_pos, ptr %match_pos.dbg.spill, align 8, !dbg !3473
  call void @llvm.dbg.declare(metadata ptr %match_pos.dbg.spill, metadata !3217, metadata !DIExpression()), !dbg !3474
  %56 = getelementptr inbounds %"core::str::pattern::TwoWaySearcher", ptr %self, i32 0, i32 4, !dbg !3475
  %57 = getelementptr inbounds %"core::str::pattern::TwoWaySearcher", ptr %self, i32 0, i32 4, !dbg !3475
  %58 = load i64, ptr %57, align 8, !dbg !3475, !noundef !23
  %59 = add i64 %58, %needle.1, !dbg !3475
  store i64 %59, ptr %56, align 8, !dbg !3475
  br i1 %long_period, label %bb40, label %bb39, !dbg !3476

bb31:                                             ; preds = %bb30
  %60 = getelementptr inbounds { i64, i64 }, ptr %_49, i32 0, i32 1, !dbg !3477
  %i = load i64, ptr %60, align 8, !dbg !3477, !noundef !23
  store i64 %i, ptr %i.dbg.spill, align 8, !dbg !3477
  call void @llvm.dbg.declare(metadata ptr %i.dbg.spill, metadata !3215, metadata !DIExpression()), !dbg !3478
  %_56 = icmp ult i64 %i, %needle.1, !dbg !3479
  %61 = call i1 @llvm.expect.i1(i1 %_56, i1 true), !dbg !3479
  br i1 %61, label %bb33, label %panic, !dbg !3479

bb39:                                             ; preds = %bb32
  %62 = getelementptr inbounds %"core::str::pattern::TwoWaySearcher", ptr %self, i32 0, i32 6, !dbg !3480
  store i64 0, ptr %62, align 8, !dbg !3480
  br label %bb40, !dbg !3481

bb40:                                             ; preds = %bb39, %bb32
  %_67 = add i64 %match_pos, %needle.1, !dbg !3482
; call <core::str::pattern::MatchOnly as core::str::pattern::TwoWayStrategy>::matching
  call void @"_ZN84_$LT$core..str..pattern..MatchOnly$u20$as$u20$core..str..pattern..TwoWayStrategy$GT$8matching17h5de367c39ac81170E"(ptr sret(%"core::option::Option<(usize, usize)>") align 8 %_0, i64 %match_pos, i64 %_67), !dbg !3483
  br label %bb43, !dbg !3375

bb33:                                             ; preds = %bb31
  %63 = getelementptr inbounds [0 x i8], ptr %needle.0, i64 0, i64 %i, !dbg !3479
  %_54 = load i8, ptr %63, align 1, !dbg !3479, !noundef !23
  %64 = getelementptr inbounds %"core::str::pattern::TwoWaySearcher", ptr %self, i32 0, i32 4, !dbg !3484
  %_59 = load i64, ptr %64, align 8, !dbg !3484, !noundef !23
  %_58 = add i64 %_59, %i, !dbg !3484
  %_61 = icmp ult i64 %_58, %haystack.1, !dbg !3485
  %65 = call i1 @llvm.expect.i1(i1 %_61, i1 true), !dbg !3485
  br i1 %65, label %bb34, label %panic12, !dbg !3485

panic:                                            ; preds = %bb31
; call core::panicking::panic_bounds_check
  call void @_ZN4core9panicking18panic_bounds_check17h326a19b32dc06d6dE(i64 %i, i64 %needle.1, ptr align 8 @alloc_9d2c926d571d846b7ed8f3f57c5c84e3) #18, !dbg !3479
  unreachable, !dbg !3479

bb34:                                             ; preds = %bb33
  %66 = getelementptr inbounds [0 x i8], ptr %haystack.0, i64 0, i64 %_58, !dbg !3485
  %_57 = load i8, ptr %66, align 1, !dbg !3485, !noundef !23
  %_53 = icmp ne i8 %_54, %_57, !dbg !3479
  br i1 %_53, label %bb35, label %bb38, !dbg !3479

panic12:                                          ; preds = %bb33
; call core::panicking::panic_bounds_check
  call void @_ZN4core9panicking18panic_bounds_check17h326a19b32dc06d6dE(i64 %_58, i64 %haystack.1, ptr align 8 @alloc_02f63835626abfb030483ffdd44ec4e5) #18, !dbg !3485
  unreachable, !dbg !3485

bb38:                                             ; preds = %bb34
  br label %bb30, !dbg !3454

bb35:                                             ; preds = %bb34
  %67 = getelementptr inbounds %"core::str::pattern::TwoWaySearcher", ptr %self, i32 0, i32 2, !dbg !3486
  %_62 = load i64, ptr %67, align 8, !dbg !3486, !noundef !23
  %68 = getelementptr inbounds %"core::str::pattern::TwoWaySearcher", ptr %self, i32 0, i32 4, !dbg !3487
  %69 = getelementptr inbounds %"core::str::pattern::TwoWaySearcher", ptr %self, i32 0, i32 4, !dbg !3487
  %70 = load i64, ptr %69, align 8, !dbg !3487, !noundef !23
  %71 = add i64 %70, %_62, !dbg !3487
  store i64 %71, ptr %68, align 8, !dbg !3487
  br i1 %long_period, label %bb37, label %bb36, !dbg !3488

bb36:                                             ; preds = %bb35
  %72 = getelementptr inbounds %"core::str::pattern::TwoWaySearcher", ptr %self, i32 0, i32 2, !dbg !3489
  %_64 = load i64, ptr %72, align 8, !dbg !3489, !noundef !23
  %73 = getelementptr inbounds %"core::str::pattern::TwoWaySearcher", ptr %self, i32 0, i32 6, !dbg !3490
  %74 = sub i64 %needle.1, %_64, !dbg !3490
  store i64 %74, ptr %73, align 8, !dbg !3490
  br label %bb37, !dbg !3491

bb37:                                             ; preds = %bb36, %bb35
  br label %bb42, !dbg !3492

bb42:                                             ; preds = %bb25, %bb37
  br label %bb1, !dbg !3375

bb21:                                             ; preds = %bb19
  %75 = getelementptr inbounds [0 x i8], ptr %needle.0, i64 0, i64 %i13, !dbg !3447
  %_32 = load i8, ptr %75, align 1, !dbg !3447, !noundef !23
  %76 = getelementptr inbounds %"core::str::pattern::TwoWaySearcher", ptr %self, i32 0, i32 4, !dbg !3494
  %_37 = load i64, ptr %76, align 8, !dbg !3494, !noundef !23
  %_36 = add i64 %_37, %i13, !dbg !3494
  %_39 = icmp ult i64 %_36, %haystack.1, !dbg !3495
  %77 = call i1 @llvm.expect.i1(i1 %_39, i1 true), !dbg !3495
  br i1 %77, label %bb22, label %panic16, !dbg !3495

panic15:                                          ; preds = %bb19
; call core::panicking::panic_bounds_check
  call void @_ZN4core9panicking18panic_bounds_check17h326a19b32dc06d6dE(i64 %i13, i64 %needle.1, ptr align 8 @alloc_49b184c40f2b7a22bd952ca838fb441a) #18, !dbg !3447
  unreachable, !dbg !3447

bb22:                                             ; preds = %bb21
  %78 = getelementptr inbounds [0 x i8], ptr %haystack.0, i64 0, i64 %_36, !dbg !3495
  %_35 = load i8, ptr %78, align 1, !dbg !3495, !noundef !23
  %_31 = icmp ne i8 %_32, %_35, !dbg !3447
  br i1 %_31, label %bb23, label %bb26, !dbg !3447

panic16:                                          ; preds = %bb21
; call core::panicking::panic_bounds_check
  call void @_ZN4core9panicking18panic_bounds_check17h326a19b32dc06d6dE(i64 %_36, i64 %haystack.1, ptr align 8 @alloc_a79a8fc2e9d2f06cdbe27021ef2e3a12) #18, !dbg !3495
  unreachable, !dbg !3495

bb26:                                             ; preds = %bb22
  br label %bb18, !dbg !3405

bb23:                                             ; preds = %bb22
  %_42 = load i64, ptr %self, align 8, !dbg !3496, !noundef !23
  %_41 = sub i64 %i13, %_42, !dbg !3497
  %_40 = add i64 %_41, 1, !dbg !3497
  %79 = getelementptr inbounds %"core::str::pattern::TwoWaySearcher", ptr %self, i32 0, i32 4, !dbg !3498
  %80 = getelementptr inbounds %"core::str::pattern::TwoWaySearcher", ptr %self, i32 0, i32 4, !dbg !3498
  %81 = load i64, ptr %80, align 8, !dbg !3498, !noundef !23
  %82 = add i64 %81, %_40, !dbg !3498
  store i64 %82, ptr %79, align 8, !dbg !3498
  br i1 %long_period, label %bb25, label %bb24, !dbg !3499

bb24:                                             ; preds = %bb23
  %83 = getelementptr inbounds %"core::str::pattern::TwoWaySearcher", ptr %self, i32 0, i32 6, !dbg !3500
  store i64 0, ptr %83, align 8, !dbg !3500
  br label %bb25, !dbg !3501

bb25:                                             ; preds = %bb24, %bb23
  br label %bb42, !dbg !3492

bb3:                                              ; No predecessors!
  unreachable, !dbg !3355
}

; core::str::pattern::TwoWaySearcher::next
; Function Attrs: inlinehint nonlazybind uwtable
define internal void @_ZN4core3str7pattern14TwoWaySearcher4next17h5aa4ade8f90aaf08E(ptr sret(%"core::str::pattern::SearchStep") align 8 %_0, ptr align 8 %self, ptr align 1 %haystack.0, i64 %haystack.1, ptr align 1 %needle.0, i64 %needle.1, i1 zeroext %long_period) unnamed_addr #0 !dbg !3502 {
start:
  %i.dbg.spill14 = alloca i64, align 8
  %i.dbg.spill = alloca i64, align 8
  %match_pos.dbg.spill = alloca i64, align 8
  %self.dbg.spill11 = alloca ptr, align 8
  %self.dbg.spill10 = alloca ptr, align 8
  %old.dbg.spill = alloca i64, align 8
  %other.dbg.spill = alloca ptr, align 8
  %self.dbg.spill9 = alloca ptr, align 8
  %self.dbg.spill8 = alloca ptr, align 8
  %v2.dbg.spill = alloca i64, align 8
  %v1.dbg.spill = alloca i64, align 8
  %tail_byte.dbg.spill = alloca i8, align 1
  %self.dbg.spill7 = alloca ptr, align 8
  %index.dbg.spill = alloca i64, align 8
  %needle_last.dbg.spill = alloca i64, align 8
  %old_pos.dbg.spill = alloca i64, align 8
  %long_period.dbg.spill = alloca i8, align 1
  %needle.dbg.spill = alloca { ptr, i64 }, align 8
  %haystack.dbg.spill = alloca { ptr, i64 }, align 8
  %self.dbg.spill = alloca ptr, align 8
  %_49 = alloca { i64, i64 }, align 8
  %iter6 = alloca { i64, i64 }, align 8
  %self5 = alloca { i64, i64 }, align 8
  %self4 = alloca { i64, i64 }, align 8
  %start3 = alloca i64, align 8
  %_27 = alloca { i64, i64 }, align 8
  %iter = alloca { i64, i64 }, align 8
  %self2 = alloca { i64, i64 }, align 8
  %start1 = alloca i64, align 8
  %_8 = alloca ptr, align 8
  store ptr %self, ptr %self.dbg.spill, align 8
  call void @llvm.dbg.declare(metadata ptr %self.dbg.spill, metadata !3529, metadata !DIExpression()), !dbg !3555
  call void @llvm.dbg.declare(metadata ptr %self.dbg.spill, metadata !3556, metadata !DIExpression()), !dbg !3561
  %0 = getelementptr inbounds { ptr, i64 }, ptr %haystack.dbg.spill, i32 0, i32 0
  store ptr %haystack.0, ptr %0, align 8
  %1 = getelementptr inbounds { ptr, i64 }, ptr %haystack.dbg.spill, i32 0, i32 1
  store i64 %haystack.1, ptr %1, align 8
  call void @llvm.dbg.declare(metadata ptr %haystack.dbg.spill, metadata !3530, metadata !DIExpression()), !dbg !3563
  call void @llvm.dbg.declare(metadata ptr %haystack.dbg.spill, metadata !3564, metadata !DIExpression()), !dbg !3569
  call void @llvm.dbg.declare(metadata ptr %haystack.dbg.spill, metadata !3571, metadata !DIExpression()), !dbg !3576
  call void @llvm.dbg.declare(metadata ptr %haystack.dbg.spill, metadata !3578, metadata !DIExpression()), !dbg !3585
  call void @llvm.dbg.declare(metadata ptr %haystack.dbg.spill, metadata !3587, metadata !DIExpression()), !dbg !3593
  call void @llvm.dbg.declare(metadata ptr %haystack.dbg.spill, metadata !3596, metadata !DIExpression()), !dbg !3600
  call void @llvm.dbg.declare(metadata ptr %haystack.dbg.spill, metadata !3602, metadata !DIExpression()), !dbg !3606
  call void @llvm.dbg.declare(metadata ptr %haystack.dbg.spill, metadata !3608, metadata !DIExpression()), !dbg !3612
  %2 = getelementptr inbounds { ptr, i64 }, ptr %needle.dbg.spill, i32 0, i32 0
  store ptr %needle.0, ptr %2, align 8
  %3 = getelementptr inbounds { ptr, i64 }, ptr %needle.dbg.spill, i32 0, i32 1
  store i64 %needle.1, ptr %3, align 8
  call void @llvm.dbg.declare(metadata ptr %needle.dbg.spill, metadata !3531, metadata !DIExpression()), !dbg !3614
  %4 = zext i1 %long_period to i8
  store i8 %4, ptr %long_period.dbg.spill, align 1
  call void @llvm.dbg.declare(metadata ptr %long_period.dbg.spill, metadata !3532, metadata !DIExpression()), !dbg !3615
  call void @llvm.dbg.declare(metadata ptr %start1, metadata !3541, metadata !DIExpression()), !dbg !3616
  call void @llvm.dbg.declare(metadata ptr %self2, metadata !3617, metadata !DIExpression()), !dbg !3621
  call void @llvm.dbg.declare(metadata ptr %iter, metadata !3543, metadata !DIExpression()), !dbg !3623
  call void @llvm.dbg.declare(metadata ptr %start3, metadata !3547, metadata !DIExpression()), !dbg !3624
  call void @llvm.dbg.declare(metadata ptr %self4, metadata !3625, metadata !DIExpression()), !dbg !3629
  call void @llvm.dbg.declare(metadata ptr %self5, metadata !3631, metadata !DIExpression()), !dbg !3635
  call void @llvm.dbg.declare(metadata ptr %self5, metadata !3637, metadata !DIExpression()), !dbg !3641
  call void @llvm.dbg.declare(metadata ptr %iter6, metadata !3549, metadata !DIExpression()), !dbg !3643
  %5 = getelementptr inbounds %"core::str::pattern::TwoWaySearcher", ptr %self, i32 0, i32 4, !dbg !3644
  %old_pos = load i64, ptr %5, align 8, !dbg !3644, !noundef !23
  store i64 %old_pos, ptr %old_pos.dbg.spill, align 8, !dbg !3644
  call void @llvm.dbg.declare(metadata ptr %old_pos.dbg.spill, metadata !3533, metadata !DIExpression()), !dbg !3645
  %needle_last = sub i64 %needle.1, 1, !dbg !3646
  store i64 %needle_last, ptr %needle_last.dbg.spill, align 8, !dbg !3646
  call void @llvm.dbg.declare(metadata ptr %needle_last.dbg.spill, metadata !3535, metadata !DIExpression()), !dbg !3647
  br label %bb1, !dbg !3648

bb1:                                              ; preds = %bb42, %bb14, %bb13, %start
  %6 = getelementptr inbounds %"core::str::pattern::TwoWaySearcher", ptr %self, i32 0, i32 4, !dbg !3649
  %_10 = load i64, ptr %6, align 8, !dbg !3649, !noundef !23
  %index = add i64 %_10, %needle_last, !dbg !3649
  store i64 %index, ptr %index.dbg.spill, align 8, !dbg !3649
  call void @llvm.dbg.declare(metadata ptr %index.dbg.spill, metadata !3568, metadata !DIExpression()), !dbg !3650
  call void @llvm.dbg.declare(metadata ptr %index.dbg.spill, metadata !3575, metadata !DIExpression()), !dbg !3651
  call void @llvm.dbg.declare(metadata ptr %index.dbg.spill, metadata !3582, metadata !DIExpression()), !dbg !3652
  call void @llvm.dbg.declare(metadata ptr %index.dbg.spill, metadata !3583, metadata !DIExpression()), !dbg !3653
  call void @llvm.dbg.declare(metadata ptr %index.dbg.spill, metadata !3592, metadata !DIExpression()), !dbg !3593
  call void @llvm.dbg.declare(metadata ptr %index.dbg.spill, metadata !3654, metadata !DIExpression()), !dbg !3659
  %_70 = icmp ult i64 %index, %haystack.1, !dbg !3661
  br i1 %_70, label %bb44, label %bb45, !dbg !3661

bb45:                                             ; preds = %bb1
  store ptr null, ptr %_8, align 8, !dbg !3662
  br label %bb46, !dbg !3663

bb44:                                             ; preds = %bb1
  store ptr %haystack.0, ptr %self.dbg.spill7, align 8, !dbg !3664
  call void @llvm.dbg.declare(metadata ptr %self.dbg.spill7, metadata !3658, metadata !DIExpression()), !dbg !3665
  %_73 = getelementptr inbounds i8, ptr %haystack.0, i64 %index, !dbg !3666
  store ptr %_73, ptr %_8, align 8, !dbg !3667
  br label %bb46, !dbg !3663

